
FP_base.elf:     file format elf32-littlenios2
FP_base.elf
architecture: nios2:r1, flags 0x00000112:
EXEC_P, HAS_SYMS, D_PAGED
start address 0x080001c0

Program Header:
    LOAD off    0x00001000 vaddr 0x08000000 paddr 0x08000000 align 2**12
         filesz 0x00000020 memsz 0x00000020 flags r-x
    LOAD off    0x00001020 vaddr 0x08000020 paddr 0x08000020 align 2**12
         filesz 0x0004f44c memsz 0x0004f44c flags r-x
    LOAD off    0x0005046c vaddr 0x0804f46c paddr 0x080510dc align 2**12
         filesz 0x00001c70 memsz 0x00001c70 flags rw-
    LOAD off    0x00052d4c vaddr 0x08052d4c paddr 0x08052d4c align 2**12
         filesz 0x00000000 memsz 0x00000170 flags rw-

Sections:
Idx Name          Size      VMA       LMA       File off  Algn
  0 .entry        00000020  08000000  08000000  00001000  2**5
                  CONTENTS, ALLOC, LOAD, READONLY, CODE
  1 .exceptions   000001a0  08000020  08000020  00001020  2**2
                  CONTENTS, ALLOC, LOAD, READONLY, CODE
  2 .text         0004bff8  080001c0  080001c0  000011c0  2**2
                  CONTENTS, ALLOC, LOAD, READONLY, CODE
  3 .rodata       000032b4  0804c1b8  0804c1b8  0004d1b8  2**2
                  CONTENTS, ALLOC, LOAD, READONLY, DATA
  4 .rwdata       00001c70  0804f46c  080510dc  0005046c  2**2
                  CONTENTS, ALLOC, LOAD, DATA, SMALL_DATA
  5 .bss          00000170  08052d4c  08052d4c  00052d4c  2**2
                  ALLOC, SMALL_DATA
  6 .new_sdram_controller_0 00000000  08052ebc  08052ebc  000520dc  2**0
                  CONTENTS
  7 .generic_tristate_controller_0 00000000  10000000  10000000  000520dc  2**0
                  CONTENTS
  8 .comment      00000023  00000000  00000000  000520dc  2**0
                  CONTENTS, READONLY
  9 .debug_aranges 00001e28  00000000  00000000  00052100  2**3
                  CONTENTS, READONLY, DEBUGGING
 10 .debug_info   0008bb2f  00000000  00000000  00053f28  2**0
                  CONTENTS, READONLY, DEBUGGING
 11 .debug_abbrev 00016a10  00000000  00000000  000dfa57  2**0
                  CONTENTS, READONLY, DEBUGGING
 12 .debug_line   0001e91a  00000000  00000000  000f6467  2**0
                  CONTENTS, READONLY, DEBUGGING
 13 .debug_frame  00007e50  00000000  00000000  00114d84  2**2
                  CONTENTS, READONLY, DEBUGGING
 14 .debug_str    0000a191  00000000  00000000  0011cbd4  2**0
                  CONTENTS, READONLY, DEBUGGING
 15 .debug_loc    000290b8  00000000  00000000  00126d65  2**0
                  CONTENTS, READONLY, DEBUGGING
 16 .debug_alt_sim_info 00000060  00000000  00000000  0014fe20  2**2
                  CONTENTS, READONLY, DEBUGGING
 17 .debug_ranges 000027d8  00000000  00000000  0014fe80  2**3
                  CONTENTS, READONLY, DEBUGGING
 18 .thread_model 00000003  00000000  00000000  0015ac4a  2**0
                  CONTENTS, READONLY
 19 .cpu          0000000c  00000000  00000000  0015ac4d  2**0
                  CONTENTS, READONLY
 20 .qsys         00000001  00000000  00000000  0015ac59  2**0
                  CONTENTS, READONLY
 21 .simulation_enabled 00000001  00000000  00000000  0015ac5a  2**0
                  CONTENTS, READONLY
 22 .stderr_dev   0000000b  00000000  00000000  0015ac5b  2**0
                  CONTENTS, READONLY
 23 .stdin_dev    0000000b  00000000  00000000  0015ac66  2**0
                  CONTENTS, READONLY
 24 .stdout_dev   0000000b  00000000  00000000  0015ac71  2**0
                  CONTENTS, READONLY
 25 .sopc_system_name 0000000b  00000000  00000000  0015ac7c  2**0
                  CONTENTS, READONLY
 26 .quartus_project_dir 0000003d  00000000  00000000  0015ac87  2**0
                  CONTENTS, READONLY
 27 .jdi          00004370  00000000  00000000  0015acc4  2**0
                  CONTENTS, READONLY
 28 .sopcinfo     0005e984  00000000  00000000  0015f034  2**0
                  CONTENTS, READONLY
SYMBOL TABLE:
08000000 l    d  .entry	00000000 .entry
08000020 l    d  .exceptions	00000000 .exceptions
080001c0 l    d  .text	00000000 .text
0804c1b8 l    d  .rodata	00000000 .rodata
0804f46c l    d  .rwdata	00000000 .rwdata
08052d4c l    d  .bss	00000000 .bss
08052ebc l    d  .new_sdram_controller_0	00000000 .new_sdram_controller_0
10000000 l    d  .generic_tristate_controller_0	00000000 .generic_tristate_controller_0
00000000 l    d  .comment	00000000 .comment
00000000 l    d  .debug_aranges	00000000 .debug_aranges
00000000 l    d  .debug_info	00000000 .debug_info
00000000 l    d  .debug_abbrev	00000000 .debug_abbrev
00000000 l    d  .debug_line	00000000 .debug_line
00000000 l    d  .debug_frame	00000000 .debug_frame
00000000 l    d  .debug_str	00000000 .debug_str
00000000 l    d  .debug_loc	00000000 .debug_loc
00000000 l    d  .debug_alt_sim_info	00000000 .debug_alt_sim_info
00000000 l    d  .debug_ranges	00000000 .debug_ranges
00000000 l    df *ABS*	00000000 ../FP_base_bsp//obj/HAL/src/crt0.o
08000208 l       .text	00000000 alt_after_alt_main
00000000 l    df *ABS*	00000000 alt_exception_entry.o
08000094 l       .exceptions	00000000 alt_exception_unknown
00000000 l    df *ABS*	00000000 alt_irq_handler.c
00000000 l    df *ABS*	00000000 cdjpeg.c
00000000 l    df *ABS*	00000000 djpeg.c
0804c710 l     O .rodata	000000b0 cdjpeg_message_table
08052d4c l     O .bss	00000004 requested_fmt
08052d50 l     O .bss	00000004 progname
08052d54 l     O .bss	00000004 outfilename
08000378 l     F .text	00000338 usage
080006b0 l     F .text	000008a0 parse_switches
08052d58 l     O .bss	00000004 printed_version.4079
08000f50 l     F .text	000000a8 jpeg_getc
08000ff8 l     F .text	000001d4 COM_handler
00000000 l    df *ABS*	00000000 jcapimin.c
00000000 l    df *ABS*	00000000 jcapistd.c
00000000 l    df *ABS*	00000000 jccoefct.c
0800229c l     F .text	000000a4 start_iMCU_row
08002340 l     F .text	00000158 start_pass_coef
08002498 l     F .text	000003f8 compress_data
08002890 l     F .text	00000400 compress_first_pass
08002c90 l     F .text	000002dc compress_output
00000000 l    df *ABS*	00000000 jccolor.c
0800313c l     F .text	000001d4 rgb_ycc_start
08003310 l     F .text	00000270 rgb_ycc_convert
08003580 l     F .text	00000168 rgb_gray_convert
080036e8 l     F .text	000002bc cmyk_ycck_convert
080039a4 l     F .text	000000d8 grayscale_convert
08003a7c l     F .text	00000114 null_convert
08003b90 l     F .text	00000024 null_method
00000000 l    df *ABS*	00000000 jcdctmgr.c
08004134 l     F .text	00000520 start_pass_fdctmgr
0804cf50 l     O .rodata	00000080 aanscales.4073
0804cfd0 l     O .rodata	00000040 aanscalefactor.4081
08004654 l     F .text	000002ec forward_DCT
08004940 l     F .text	00000328 forward_DCT_float
00000000 l    df *ABS*	00000000 jchuff.c
08004ddc l     F .text	000003ac start_pass_huff
08005fa0 l     F .text	000001e4 encode_mcu_gather
08006878 l     F .text	0000021c finish_pass_gather
08005a1c l     F .text	000002e0 encode_mcu_huff
08005cfc l     F .text	0000011c finish_pass_huff
080053f8 l     F .text	00000080 dump_buffer
08005478 l     F .text	00000198 emit_bits
08005610 l     F .text	00000058 flush_bits
08005668 l     F .text	00000288 encode_one_block
080058f0 l     F .text	0000012c emit_restart
08005e18 l     F .text	00000188 htest_one_block
00000000 l    df *ABS*	00000000 jcinit.c
00000000 l    df *ABS*	00000000 jcmainct.c
08006cf0 l     F .text	000000b4 start_pass_main
08006da4 l     F .text	00000160 process_data_simple_main
00000000 l    df *ABS*	00000000 jcmarker.c
08007044 l     F .text	000000b0 emit_byte
080070f4 l     F .text	0000004c emit_marker
08007140 l     F .text	0000005c emit_2bytes
0800719c l     F .text	000001bc emit_dqt
08007358 l     F .text	000001dc emit_dht
08007534 l     F .text	00000024 emit_dac
08007558 l     F .text	00000058 emit_dri
080075b0 l     F .text	00000194 emit_sof
08007744 l     F .text	00000180 emit_sos
080078c4 l     F .text	000000f8 emit_jfif_app0
080079bc l     F .text	000000f0 emit_adobe_app14
08007aac l     F .text	000000a0 write_any_marker
08007b4c l     F .text	00000060 write_file_header
08007bac l     F .text	000001c0 write_frame_header
08007d6c l     F .text	00000130 write_scan_header
08007e9c l     F .text	00000038 write_file_trailer
08007ed4 l     F .text	0000011c write_tables_only
00000000 l    df *ABS*	00000000 jcmaster.c
080080bc l     F .text	00000440 initial_setup
080084fc l     F .text	000007a8 validate_script
08008ca4 l     F .text	00000200 select_scan_parameters
08008ea4 l     F .text	000003a8 per_scan_setup
0800924c l     F .text	000002f4 prepare_for_pass
08009540 l     F .text	00000060 pass_startup
080095a0 l     F .text	000000f4 finish_pass_master
00000000 l    df *ABS*	00000000 jcomapi.c
00000000 l    df *ABS*	00000000 jcparam.c
0804d010 l     O .rodata	00000100 std_luminance_quant_tbl.4017
0804d110 l     O .rodata	00000100 std_chrominance_quant_tbl.4018
08009c4c l     F .text	00000098 add_huff_table
08009ce4 l     F .text	000000bc std_huff_tables
0804d221 l     O .rodata	0000000c val_dc_luminance.4037
0804d210 l     O .rodata	00000011 bits_dc_luminance.4036
0804d23e l     O .rodata	000000a2 val_ac_luminance.4041
0804d22d l     O .rodata	00000011 bits_ac_luminance.4040
0804d2f1 l     O .rodata	0000000c val_dc_chrominance.4039
0804d2e0 l     O .rodata	00000011 bits_dc_chrominance.4038
0804d30e l     O .rodata	000000a2 val_ac_chrominance.4043
0804d2fd l     O .rodata	00000011 bits_ac_chrominance.4042
0800a75c l     F .text	00000084 fill_a_scan
0800a7e0 l     F .text	000000a4 fill_scans
0800a884 l     F .text	000000f8 fill_dc_scans
00000000 l    df *ABS*	00000000 jcphuff.c
0800accc l     F .text	00000414 start_pass_phuff
0800b6e8 l     F .text	00000270 encode_mcu_DC_first
0800b958 l     F .text	000002ac encode_mcu_AC_first
0800bc04 l     F .text	000001a0 encode_mcu_DC_refine
0800bda4 l     F .text	000003b0 encode_mcu_AC_refine
0800c1ec l     F .text	000001bc finish_pass_gather_phuff
0800c154 l     F .text	00000098 finish_pass_phuff
0800b0e0 l     F .text	000000ac dump_buffer
0800b18c l     F .text	00000190 emit_bits
0800b31c l     F .text	0000004c flush_bits
0800b368 l     F .text	000000e4 emit_symbol
0800b44c l     F .text	0000008c emit_buffered_bits
0800b4d8 l     F .text	000000d0 emit_eobrun
0800b5a8 l     F .text	00000140 emit_restart
00000000 l    df *ABS*	00000000 jcprepct.c
0800c470 l     F .text	000000a0 start_pass_prep
0800c510 l     F .text	00000080 expand_bottom_edge
0800c590 l     F .text	00000310 pre_process_data
0800c8a0 l     F .text	0000039c pre_process_context
0800cc3c l     F .text	00000250 create_context_buffer
00000000 l    df *ABS*	00000000 jcsample.c
0800d01c l     F .text	00000024 start_pass_downsample
0800d040 l     F .text	000000c4 expand_right_edge
0800d104 l     F .text	00000120 sep_downsample
0800d224 l     F .text	0000022c int_downsample
0800d450 l     F .text	00000094 fullsize_downsample
0800d4e4 l     F .text	00000140 h2v1_downsample
0800d624 l     F .text	00000198 h2v2_downsample
0800d7bc l     F .text	00000598 h2v2_smooth_downsample
0800dd54 l     F .text	0000036c fullsize_smooth_downsample
00000000 l    df *ABS*	00000000 jctrans.c
0800e8c0 l     F .text	000000d8 transencode_master_selection
0800eea8 l     F .text	00000100 transencode_coef_controller
0800e998 l     F .text	000000a4 start_iMCU_row
0800ea3c l     F .text	0000007c start_pass_coef
0800eab8 l     F .text	000003f0 compress_output
00000000 l    df *ABS*	00000000 jdapimin.c
0800f2b4 l     F .text	000003b4 default_decompress_parms
00000000 l    df *ABS*	00000000 jdapistd.c
0800fd00 l     F .text	00000170 output_pass_setup
00000000 l    df *ABS*	00000000 jdatadst.c
0801032c l     F .text	0000007c init_destination
080103a8 l     F .text	000000a4 empty_output_buffer
0801044c l     F .text	000000f4 term_destination
00000000 l    df *ABS*	00000000 jdatasrc.c
080105ec l     F .text	0000003c init_source
08010628 l     F .text	00000110 fill_input_buffer
08010738 l     F .text	000000ac skip_input_data
080107e4 l     F .text	00000024 term_source
00000000 l    df *ABS*	00000000 jdcoefct.c
08010918 l     F .text	000000a4 start_iMCU_row
080109bc l     F .text	0000003c start_input_pass
080109f8 l     F .text	00000088 start_output_pass
0801142c l     F .text	00000224 smoothing_ok
08011650 l     F .text	00000bbc decompress_smooth_data
08011140 l     F .text	000002ec decompress_data
08010a80 l     F .text	0000038c decompress_onepass
08010e0c l     F .text	00000024 dummy_consume_data
08010e30 l     F .text	00000310 consume_data
00000000 l    df *ABS*	00000000 jdcolor.c
0801246c l     F .text	000001d4 build_ycc_rgb_table
08012640 l     F .text	000002d0 ycc_rgb_convert
08012910 l     F .text	00000118 null_convert
08012a28 l     F .text	0000006c grayscale_convert
08012a94 l     F .text	0000027c ycck_cmyk_convert
08012d10 l     F .text	00000024 start_pass_dcolor
00000000 l    df *ABS*	00000000 jddctmgr.c
08013134 l     F .text	000004c0 start_pass
0804d3dc l     O .rodata	00000080 aanscales.4113
0804d45c l     O .rodata	00000040 aanscalefactor.4121
00000000 l    df *ABS*	00000000 jdhuff.c
080136f8 l     F .text	0000028c start_pass_huff_decoder
0804d49c l     O .rodata	00000040 extend_test
0804d4dc l     O .rodata	00000040 extend_offset
0801415c l     F .text	000000e8 process_restart
08014244 l     F .text	00000704 decode_mcu
00000000 l    df *ABS*	00000000 jdinput.c
08014a34 l     F .text	000003e0 initial_setup
08014e14 l     F .text	00000374 per_scan_setup
08015188 l     F .text	00000150 latch_quant_tables
080152d8 l     F .text	0000007c start_input_pass
08015354 l     F .text	00000038 finish_input_pass
0801538c l     F .text	00000150 consume_markers
080154dc l     F .text	00000094 reset_input_controller
00000000 l    df *ABS*	00000000 jdmainct.c
08015624 l     F .text	000001bc alloc_funny_pointers
080157e0 l     F .text	000002bc make_funny_pointers
08015a9c l     F .text	0000024c set_wraparound_pointers
08015ce8 l     F .text	000001a8 set_bottom_pointers
08015e90 l     F .text	000000f4 start_pass_main
0801607c l     F .text	000002b0 process_data_context_main
08015f84 l     F .text	000000f8 process_data_simple_main
0801632c l     F .text	00000070 process_data_crank_post
00000000 l    df *ABS*	00000000 jdmarker.c
08016568 l     F .text	0000014c get_soi
080166b4 l     F .text	00000780 get_sof
08016e34 l     F .text	00000674 get_sos
080174a8 l     F .text	00000534 get_app0
080179dc l     F .text	000003bc get_app14
08017d98 l     F .text	00000380 get_dac
08018118 l     F .text	00000620 get_dht
08018738 l     F .text	00000604 get_dqt
08018d3c l     F .text	00000274 get_dri
08018fb0 l     F .text	000001a0 skip_variable
08019150 l     F .text	0000028c next_marker
080193dc l     F .text	00000190 first_marker
0801956c l     F .text	0000040c read_markers
08019978 l     F .text	00000104 read_restart_marker
08019c64 l     F .text	00000060 reset_marker_reader
00000000 l    df *ABS*	00000000 jdmaster.c
08019de0 l     F .text	00000174 use_merged_upsample
0801a3a8 l     F .text	0000012c prepare_range_limit_table
0801a4d4 l     F .text	000003f0 master_selection
0801a8c4 l     F .text	000002a8 prepare_for_output_pass
0801ab6c l     F .text	0000006c finish_output_pass
00000000 l    df *ABS*	00000000 jdmerge.c
0801ad58 l     F .text	000001d4 build_ycc_rgb_table
0801af2c l     F .text	00000048 start_pass_merged_upsample
0801af74 l     F .text	000001e8 merged_2v_upsample
0801b15c l     F .text	000000ac merged_1v_upsample
0801b208 l     F .text	00000370 h2v1_merged_upsample
0801b578 l     F .text	00000480 h2v2_merged_upsample
00000000 l    df *ABS*	00000000 jdphuff.c
0801bb18 l     F .text	000005a0 start_pass_phuff_decoder
0801c1a8 l     F .text	000003dc decode_mcu_DC_first
0801c584 l     F .text	000003c4 decode_mcu_AC_first
0801c948 l     F .text	000001cc decode_mcu_DC_refine
0801cb14 l     F .text	0000066c decode_mcu_AC_refine
0804d51c l     O .rodata	00000040 extend_test
0804d55c l     O .rodata	00000040 extend_offset
0801c0b8 l     F .text	000000f0 process_restart
00000000 l    df *ABS*	00000000 jdpostct.c
0801d2bc l     F .text	000001a8 start_pass_dpost
0801d464 l     F .text	00000114 post_process_1pass
0801d578 l     F .text	0000019c post_process_prepass
0801d714 l     F .text	000001c8 post_process_2pass
00000000 l    df *ABS*	00000000 jdsample.c
0801da50 l     F .text	00000050 start_pass_upsample
0801daa0 l     F .text	0000027c sep_upsample
0801dd1c l     F .text	0000003c fullsize_upsample
0801dd58 l     F .text	00000038 noop_upsample
0801dd90 l     F .text	000001a8 int_upsample
0801df38 l     F .text	000000f0 h2v1_upsample
0801e028 l     F .text	0000013c h2v2_upsample
0801e164 l     F .text	000001c4 h2v1_fancy_upsample
0801e328 l     F .text	000002d4 h2v2_fancy_upsample
00000000 l    df *ABS*	00000000 jdtrans.c
0801ec00 l     F .text	0000015c transdecode_master_selection
00000000 l    df *ABS*	00000000 jerror.c
0801ed5c l     F .text	00000038 error_exit
0801ed94 l     F .text	00000060 output_message
0801edf4 l     F .text	000000a8 emit_message
0801ee9c l     F .text	000001fc format_message
0801f098 l     F .text	0000003c reset_error_mgr
00000000 l    df *ABS*	00000000 jfdctflt.c
00000000 l    df *ABS*	00000000 jfdctfst.c
00000000 l    df *ABS*	00000000 jfdctint.c
00000000 l    df *ABS*	00000000 jidctflt.c
00000000 l    df *ABS*	00000000 jidctfst.c
00000000 l    df *ABS*	00000000 jidctint.c
00000000 l    df *ABS*	00000000 jidctred.c
00000000 l    df *ABS*	00000000 jmemmgr.c
08023528 l     F .text	00000064 out_of_memory
08051078 l     O .rwdata	00000008 first_pool_slop
08051080 l     O .rwdata	00000008 extra_pool_slop
0802358c l     F .text	000002d0 alloc_small
0802385c l     F .text	00000178 alloc_large
080239d4 l     F .text	00000178 alloc_sarray
08023b4c l     F .text	00000188 alloc_barray
08023cd4 l     F .text	000000f4 request_virt_sarray
08023dc8 l     F .text	000000f4 request_virt_barray
08023ebc l     F .text	000003fc realize_virt_arrays
080242b8 l     F .text	000001d8 do_sarray_io
08024490 l     F .text	000001dc do_barray_io
0802466c l     F .text	000002d4 access_virt_sarray
08024940 l     F .text	000002d8 access_virt_barray
08024c18 l     F .text	00000298 free_pool
08024eb0 l     F .text	00000080 self_destruct
00000000 l    df *ABS*	00000000 jmemnobs.c
00000000 l    df *ABS*	00000000 jquant1.c
0804e920 l     O .rodata	00000100 base_dither_matrix
0802537c l     F .text	0000024c select_ncolors
0804ea20 l     O .rodata	0000000c RGB_order.4030
080255c8 l     F .text	0000005c output_value
08025624 l     F .text	0000005c largest_input_value
08025680 l     F .text	0000028c create_colormap
0802590c l     F .text	00000278 create_colorindex
08025b84 l     F .text	00000134 make_odither_array
08025cb8 l     F .text	00000120 create_odither_tables
08025dd8 l     F .text	0000015c color_quantize
08025f34 l     F .text	00000180 color_quantize3
080260b4 l     F .text	0000020c quantize_ord_dither
080262c0 l     F .text	00000270 quantize3_ord_dither
08026530 l     F .text	0000034c quantize_fs_dither
0802687c l     F .text	000000ac alloc_fs_workspace
08026928 l     F .text	000001d8 start_pass_1_quant
08026b00 l     F .text	00000024 finish_pass_1_quant
08026b24 l     F .text	00000050 new_color_map_1_quant
00000000 l    df *ABS*	00000000 jquant2.c
08026cbc l     F .text	00000144 prescan_quantize
08026e00 l     F .text	0000007c find_biggest_color_pop
08026e7c l     F .text	00000074 find_biggest_volume
08026ef0 l     F .text	00000734 update_box
08027624 l     F .text	00000244 median_cut
08027868 l     F .text	00000288 compute_color
08027af0 l     F .text	00000144 select_colors
08027c34 l     F .text	00000560 find_nearby_colors
08028194 l     F .text	000002b0 find_best_colors
08028444 l     F .text	000001f4 fill_inverse_cmap
08028638 l     F .text	000001b0 pass2_no_dither
080287e8 l     F .text	0000053c pass2_fs_dither
08028d24 l     F .text	000001a8 init_error_limit
08028ecc l     F .text	00000068 finish_pass1
08028f34 l     F .text	00000024 finish_pass2
08028f58 l     F .text	00000248 start_pass_2_quant
080291a0 l     F .text	0000003c new_color_map_2_quant
00000000 l    df *ABS*	00000000 jutils.c
00000000 l    df *ABS*	00000000 rdcolmap.c
08029678 l     F .text	0000017c add_map_entry
080297f4 l     F .text	000001e4 read_gif_map
080299d8 l     F .text	00000064 pbm_getc
08029a3c l     F .text	00000104 read_pbm_integer
08029b40 l     F .text	00000264 read_ppm_map
00000000 l    df *ABS*	00000000 wrbmp.c
08029e6c l     F .text	00000138 put_pixel_rows
08029fa4 l     F .text	00000114 put_gray_rows
0802a0b8 l     F .text	00000028 start_output_bmp
0802a0e0 l     F .text	00000378 write_bmp_header
0802a6bc l     F .text	000002c0 write_colormap
0802a458 l     F .text	00000264 write_os2_header
0802a97c l     F .text	000001bc finish_output_bmp
00000000 l    df *ABS*	00000000 wrgif.c
0802ad5c l     F .text	000000d4 flush_packet
0802ae30 l     F .text	00000180 output
0802afb0 l     F .text	00000044 clear_hash
0802aff4 l     F .text	0000009c clear_block
0802b090 l     F .text	00000104 compress_init
0802b194 l     F .text	0000025c compress_byte
0802b3f0 l     F .text	000000dc compress_term
0802b4cc l     F .text	0000006c put_word
0802b538 l     F .text	0000006c put_3bytes
0802b5a4 l     F .text	00000418 emit_header
0802b9bc l     F .text	00000078 start_output_gif
0802ba34 l     F .text	00000088 put_pixel_rows
0802babc l     F .text	000000b4 finish_output_gif
00000000 l    df *ABS*	00000000 wrppm.c
0802bd50 l     F .text	00000194 put_pixel_rows
0802bee4 l     F .text	000000c0 copy_pixel_rows
0802bfa4 l     F .text	00000144 put_demapped_rgb
0802c0e8 l     F .text	000000e0 put_demapped_gray
0802c1c8 l     F .text	00000100 start_output_ppm
0802c2c8 l     F .text	00000030 finish_output_ppm
00000000 l    df *ABS*	00000000 wrrle.c
00000000 l    df *ABS*	00000000 wrtarga.c
0802c4bc l     F .text	00000148 write_header
0802c604 l     F .text	000000d8 put_pixel_rows
0802c6dc l     F .text	000000c0 put_gray_rows
0802c79c l     F .text	000000e0 put_demapped_gray
0802c87c l     F .text	0000020c start_output_tga
0802ca88 l     F .text	0000007c finish_output_tga
00000000 l    df *ABS*	00000000 lib2-divmod.c
00000000 l    df *ABS*	00000000 addsf3.c
00000000 l    df *ABS*	00000000 mulsf3.c
00000000 l    df *ABS*	00000000 subsf3.c
00000000 l    df *ABS*	00000000 fixsfsi.c
00000000 l    df *ABS*	00000000 floatsisf.c
00000000 l    df *ABS*	00000000 divdf3.c
00000000 l    df *ABS*	00000000 muldf3.c
00000000 l    df *ABS*	00000000 floatunsidf.c
00000000 l    df *ABS*	00000000 truncdfsf2.c
00000000 l    df *ABS*	00000000 libgcc2.c
00000000 l    df *ABS*	00000000 libgcc2.c
00000000 l    df *ABS*	00000000 ctype_.c
0804edac l     O .rodata	00000180 _ctype_b
00000000 l    df *ABS*	00000000 exit.c
00000000 l    df *ABS*	00000000 fclose.c
00000000 l    df *ABS*	00000000 fflush.c
00000000 l    df *ABS*	00000000 findfp.c
0802f38c l     F .text	00000008 __fp_unlock
0802f3a0 l     F .text	0000019c __sinit.part.1
0802f53c l     F .text	00000008 __fp_lock
00000000 l    df *ABS*	00000000 fopen.c
00000000 l    df *ABS*	00000000 fprintf.c
00000000 l    df *ABS*	00000000 fputc.c
00000000 l    df *ABS*	00000000 fread.c
00000000 l    df *ABS*	00000000 mallocr.c
00000000 l    df *ABS*	00000000 fseek.c
00000000 l    df *ABS*	00000000 fseeko.c
00000000 l    df *ABS*	00000000 fstatr.c
00000000 l    df *ABS*	00000000 fwalk.c
00000000 l    df *ABS*	00000000 fwrite.c
00000000 l    df *ABS*	00000000 getc.c
00000000 l    df *ABS*	00000000 getenv.c
00000000 l    df *ABS*	00000000 getenv_r.c
00000000 l    df *ABS*	00000000 impure.c
0804f46c l     O .rwdata	00000424 impure_data
00000000 l    df *ABS*	00000000 int_errno.c
00000000 l    df *ABS*	00000000 makebuf.c
00000000 l    df *ABS*	00000000 malloc.c
00000000 l    df *ABS*	00000000 mallocr.c
00000000 l    df *ABS*	00000000 memcpy.c
00000000 l    df *ABS*	00000000 memset.c
00000000 l    df *ABS*	00000000 openr.c
00000000 l    df *ABS*	00000000 printf.c
00000000 l    df *ABS*	00000000 putc.c
00000000 l    df *ABS*	00000000 puts.c
00000000 l    df *ABS*	00000000 refill.c
080318e0 l     F .text	0000001c lflush
00000000 l    df *ABS*	00000000 rget.c
00000000 l    df *ABS*	00000000 sbrkr.c
00000000 l    df *ABS*	00000000 sprintf.c
00000000 l    df *ABS*	00000000 sscanf.c
00000000 l    df *ABS*	00000000 stdio.c
00000000 l    df *ABS*	00000000 strdup.c
00000000 l    df *ABS*	00000000 strdup_r.c
00000000 l    df *ABS*	00000000 strlen.c
00000000 l    df *ABS*	00000000 strncmp.c
00000000 l    df *ABS*	00000000 vfprintf.c
0804ef76 l     O .rodata	00000010 zeroes.4389
0804ef86 l     O .rodata	00000010 blanks.4388
00000000 l    df *ABS*	00000000 vfscanf.c
0804ef9e l     O .rodata	00000022 basefix.4340
00000000 l    df *ABS*	00000000 vfprintf.c
0804efc0 l     O .rodata	00000010 zeroes.4404
08037c2c l     F .text	000000bc __sbprintf
0804efd0 l     O .rodata	00000010 blanks.4403
00000000 l    df *ABS*	00000000 wbuf.c
00000000 l    df *ABS*	00000000 writer.c
00000000 l    df *ABS*	00000000 wsetup.c
00000000 l    df *ABS*	00000000 closer.c
00000000 l    df *ABS*	00000000 __call_atexit.c
00000000 l    df *ABS*	00000000 dtoa.c
080381c8 l     F .text	00000200 quorem
00000000 l    df *ABS*	00000000 environ.c
08052d6c l     O .bss	00000004 initial_env
00000000 l    df *ABS*	00000000 flags.c
00000000 l    df *ABS*	00000000 fvwrite.c
00000000 l    df *ABS*	00000000 isattyr.c
00000000 l    df *ABS*	00000000 iswspace.c
00000000 l    df *ABS*	00000000 locale.c
0804fcb8 l     O .rwdata	00000020 lc_ctype_charset
0804fc98 l     O .rwdata	00000020 lc_message_charset
0804fcd8 l     O .rwdata	00000038 lconv
00000000 l    df *ABS*	00000000 lseekr.c
00000000 l    df *ABS*	00000000 mbrtowc.c
00000000 l    df *ABS*	00000000 mbtowc_r.c
00000000 l    df *ABS*	00000000 memchr.c
00000000 l    df *ABS*	00000000 memmove.c
00000000 l    df *ABS*	00000000 mprec.c
0804effc l     O .rodata	0000000c p05.2768
00000000 l    df *ABS*	00000000 readr.c
00000000 l    df *ABS*	00000000 mallocr.c
00000000 l    df *ABS*	00000000 s_fpclassify.c
00000000 l    df *ABS*	00000000 sccl.c
00000000 l    df *ABS*	00000000 sf_nan.c
00000000 l    df *ABS*	00000000 strcmp.c
00000000 l    df *ABS*	00000000 strtod.c
0803bdc4 l     F .text	00000064 sulp
0804f144 l     O .rodata	00000014 fpi.2737
0804f158 l     O .rodata	00000028 tinytens
0804f130 l     O .rodata	00000014 fpinan.2773
00000000 l    df *ABS*	00000000 strtol.c
00000000 l    df *ABS*	00000000 strtoll_r.c
00000000 l    df *ABS*	00000000 strtoul.c
00000000 l    df *ABS*	00000000 strtoull_r.c
00000000 l    df *ABS*	00000000 vfprintf.c
0804f190 l     O .rodata	00000010 blanks.4332
0804f180 l     O .rodata	00000010 zeroes.4333
00000000 l    df *ABS*	00000000 vfscanf.c
0804f1a0 l     O .rodata	00000022 basefix.3791
00000000 l    df *ABS*	00000000 ungetc.c
00000000 l    df *ABS*	00000000 vfprintf.c
08040a04 l     F .text	000000fc __sprint_r.part.0
0804f1d2 l     O .rodata	00000010 blanks.4348
0804f1c2 l     O .rodata	00000010 zeroes.4349
08041f90 l     F .text	000000bc __sbprintf
00000000 l    df *ABS*	00000000 mallocr.c
00000000 l    df *ABS*	00000000 fputwc.c
00000000 l    df *ABS*	00000000 gdtoa-gethex.c
08042318 l     F .text	00000100 rshift
00000000 l    df *ABS*	00000000 gdtoa-hexnan.c
00000000 l    df *ABS*	00000000 wcrtomb.c
00000000 l    df *ABS*	00000000 wctomb_r.c
00000000 l    df *ABS*	00000000 libgcc2.c
00000000 l    df *ABS*	00000000 libgcc2.c
00000000 l    df *ABS*	00000000 libgcc2.c
00000000 l    df *ABS*	00000000 libgcc2.c
00000000 l    df *ABS*	00000000 eqsf2.c
00000000 l    df *ABS*	00000000 gesf2.c
00000000 l    df *ABS*	00000000 lesf2.c
00000000 l    df *ABS*	00000000 adddf3.c
00000000 l    df *ABS*	00000000 eqdf2.c
00000000 l    df *ABS*	00000000 gedf2.c
00000000 l    df *ABS*	00000000 ledf2.c
00000000 l    df *ABS*	00000000 subdf3.c
00000000 l    df *ABS*	00000000 fixdfsi.c
00000000 l    df *ABS*	00000000 floatsidf.c
00000000 l    df *ABS*	00000000 alt_close.c
08045368 l     F .text	0000003c alt_get_errno
00000000 l    df *ABS*	00000000 alt_dev.c
08045474 l     F .text	0000002c alt_dev_null_write
00000000 l    df *ABS*	00000000 alt_env_lock.c
00000000 l    df *ABS*	00000000 alt_errno.c
00000000 l    df *ABS*	00000000 alt_exit.c
00000000 l    df *ABS*	00000000 alt_fstat.c
0804551c l     F .text	0000003c alt_get_errno
00000000 l    df *ABS*	00000000 alt_isatty.c
08045608 l     F .text	0000003c alt_get_errno
00000000 l    df *ABS*	00000000 alt_load.c
080456e8 l     F .text	00000068 alt_load_section
00000000 l    df *ABS*	00000000 alt_lseek.c
080457d4 l     F .text	0000003c alt_get_errno
00000000 l    df *ABS*	00000000 alt_main.c
00000000 l    df *ABS*	00000000 alt_malloc_lock.c
00000000 l    df *ABS*	00000000 alt_open.c
080459a8 l     F .text	0000003c alt_get_errno
080459e4 l     F .text	000000c4 alt_file_locked
00000000 l    df *ABS*	00000000 alt_read.c
08045bfc l     F .text	0000003c alt_get_errno
00000000 l    df *ABS*	00000000 alt_release_fd.c
00000000 l    df *ABS*	00000000 alt_sbrk.c
080510c4 l     O .rwdata	00000004 heap_end
00000000 l    df *ABS*	00000000 alt_write.c
08045e48 l     F .text	0000003c alt_get_errno
00000000 l    df *ABS*	00000000 alt_sys_init.c
08045f7c l     F .text	00000034 alt_dev_reg
0804feb8 l     O .rwdata	000000dc generic_tristate_controller_0
0804ff94 l     O .rwdata	00001060 jtag_uart_0
08050ff4 l     O .rwdata	00000030 altera_ro_zipfs
08051024 l     O .rwdata	00000054 video_pixel_buffer_dma_0
00000000 l    df *ABS*	00000000 altera_avalon_cfi_flash.c
08046244 l     F .text	00000034 alt_flash_device_register
00000000 l    df *ABS*	00000000 altera_avalon_cfi_flash_table.c
08047094 l     F .text	00000080 alt_read_16bit_query_entry
00000000 l    df *ABS*	00000000 altera_avalon_jtag_uart_fd.c
00000000 l    df *ABS*	00000000 altera_avalon_jtag_uart_init.c
08048148 l     F .text	0000020c altera_avalon_jtag_uart_irq
08048354 l     F .text	000000a0 altera_avalon_jtag_uart_timeout
00000000 l    df *ABS*	00000000 altera_avalon_jtag_uart_ioctl.c
00000000 l    df *ABS*	00000000 altera_avalon_jtag_uart_read.c
00000000 l    df *ABS*	00000000 altera_avalon_jtag_uart_write.c
00000000 l    df *ABS*	00000000 altera_avalon_performance_counter.c
00000000 l    df *ABS*	00000000 altera_ro_zipfs.c
08048b1c l     F .text	00000074 read_word
08048b90 l     F .text	00000054 read_word_inc
08048be4 l     F .text	00000044 read_half_word
08048c28 l     F .text	00000054 read_half_word_inc
08048c7c l     F .text	00000120 check_file_header
08048ed0 l     F .text	000000a4 check_directory_table
08048f74 l     F .text	000000ac find_directory_entry
08049020 l     F .text	00000178 find_file_entry_by_name
08049198 l     F .text	0000019c find_file_entry
00000000 l    df *ABS*	00000000 altera_up_avalon_video_pixel_buffer_dma.c
00000000 l    df *ABS*	00000000 perf_print_formatted_report.c
00000000 l    df *ABS*	00000000 alt_alarm_start.c
00000000 l    df *ABS*	00000000 alt_dcache_flush.c
00000000 l    df *ABS*	00000000 alt_dcache_flush_all.c
00000000 l    df *ABS*	00000000 alt_dev_llist_insert.c
0804a9d8 l     F .text	0000003c alt_get_errno
00000000 l    df *ABS*	00000000 alt_do_ctors.c
00000000 l    df *ABS*	00000000 alt_do_dtors.c
00000000 l    df *ABS*	00000000 alt_find_dev.c
00000000 l    df *ABS*	00000000 alt_find_file.c
00000000 l    df *ABS*	00000000 alt_flash_dev.c
00000000 l    df *ABS*	00000000 alt_fs_reg.c
00000000 l    df *ABS*	00000000 alt_get_fd.c
00000000 l    df *ABS*	00000000 alt_icache_flush_all.c
00000000 l    df *ABS*	00000000 alt_iic.c
00000000 l    df *ABS*	00000000 alt_iic_isr_register.c
00000000 l    df *ABS*	00000000 alt_io_redirect.c
0804b1c4 l     F .text	000000c4 alt_open_fd
00000000 l    df *ABS*	00000000 alt_irq_vars.c
00000000 l    df *ABS*	00000000 alt_tick.c
00000000 l    df *ABS*	00000000 altera_nios2_qsys_irq.c
00000000 l    df *ABS*	00000000 altera_avalon_cfi_flash_amd.c
0804b860 l     F .text	000000cc alt_write_word_amd
0804b744 l     F .text	0000011c alt_wait_for_command_to_complete_amd
00000000 l    df *ABS*	00000000 altera_avalon_cfi_flash_intel.c
0804bb38 l     F .text	0000017c alt_unlock_block_intel
0804bcb4 l     F .text	000000d4 alt_write_word_intel
00000000 l    df *ABS*	00000000 alt_icache_flush.c
00000000 l    df *ABS*	00000000 alt_usleep.c
00000000 l    df *ABS*	00000000 alt_busy_sleep.c
00000000 l    df *ABS*	00000000 atexit.c
00000000 l    df *ABS*	00000000 memcmp.c
00000000 l    df *ABS*	00000000 __atexit.c
00000000 l    df *ABS*	00000000 libgcc2.c
08006184 g     F .text	000006f4 jpeg_gen_optimal_table
0803b460 g     F .text	00000074 _mprec_log10
0800e4d8 g     F .text	000003e8 jpeg_copy_critical_parameters
0803b54c g     F .text	0000008c __any_on
08039fb8 g     F .text	00000054 _isatty_r
0804f008 g     O .rodata	00000028 __mprec_tinytens
080458e4 g     F .text	0000007c alt_main
08049f8c g     F .text	0000024c alt_up_pixel_buffer_dma_draw_vline
0803180c g     F .text	000000c0 _puts_r
08046b58 g     F .text	00000040 alt_read_query_entry_32bit
08052dbc g     O .bss	00000100 alt_irq
0803a118 g     F .text	00000060 _lseek_r
08046308 g     F .text	000002a8 alt_flash_cfi_write
080510dc g       *ABS*	00000000 __flash_rwdata_start
0800ce8c g     F .text	00000190 jinit_c_prep_controller
08039a50 g     F .text	000000ac __sflags
080446b8 g     F .text	00000088 .hidden __eqdf2
08052ebc g       *ABS*	00000000 __alt_heap_start
08031668 g     F .text	0000003c printf
08042ea4 g     F .text	0000009c _wcrtomb_r
08031e3c g     F .text	0000005c __sseek
0802f6dc g     F .text	00000010 __sinit
08048af8 g     F .text	00000024 alt_get_cpu_freq
08037ce8 g     F .text	00000140 __swbuf_r
0803a03c g     F .text	0000007c _setlocale_r
08015570 g     F .text	000000b4 jinit_input_controller
0802f544 g     F .text	00000068 __sfmoreglue
080409ec g     F .text	00000018 ungetc
08045984 g     F .text	00000024 __malloc_unlock
0800fe70 g     F .text	00000144 jpeg_read_scanlines
0803be28 g     F .text	000015f8 _strtod_r
080251cc g     F .text	00000034 jpeg_get_small
080206dc g     F .text	00000c58 jpeg_idct_float
0800a058 g     F .text	00000704 jpeg_set_colorspace
0803f59c g     F .text	000000f4 _sfread_r
08009b78 g     F .text	00000084 jpeg_quality_scaling
0803a480 g     F .text	0000015c memmove
0800a97c g     F .text	00000350 jpeg_simple_progression
0804a56c g     F .text	00000280 perf_print_formatted_report
0802f6c4 g     F .text	00000018 _cleanup
0803a5dc g     F .text	000000a8 _Balloc
0802db60 g     F .text	00000070 .hidden __fixsfsi
0801f9d0 g     F .text	000005f4 jpeg_fdct_ifast
08013984 g     F .text	0000041c jpeg_make_d_derived_tbl
080496f4 g     F .text	00000194 alt_up_pixel_buffer_dma_draw
08044740 g     F .text	000000dc .hidden __gtdf2
08023480 g     F .text	000000a8 jpeg_idct_1x1
08046cf0 g     F .text	00000050 alt_write_flash_command_32bit_device_16bit_mode
080496b8 g     F .text	0000003c alt_up_pixel_buffer_dma_open_dev
08000000 g     F .entry	0000001c __reset
08013fb4 g     F .text	000001a8 jpeg_huff_decode
0803082c g     F .text	0000002c getenv
08000020 g       *ABS*	00000000 __flash_exceptions_start
08021d94 g     F .text	00000b94 jpeg_idct_islow
08030438 g     F .text	0000005c _fstat_r
080467fc g     F .text	000002e0 alt_flash_program_block
08052d5c g     O .bss	00000004 errno
08031b44 g     F .text	00000014 __srget
08031db8 g     F .text	00000008 __seofread
0801acd0 g     F .text	00000088 jinit_master_decompress
0803e1e8 g     F .text	0000123c ___svfiprintf_internal_r
08052d80 g     O .bss	00000004 alt_argv
08059078 g       *ABS*	00000000 _gp
0804be18 g     F .text	00000030 usleep
0802d67c g     F .text	000004e4 .hidden __subsf3
08049888 g     F .text	0000005c alt_up_pixel_buffer_dma_change_back_buffer_address
08019f54 g     F .text	00000454 jpeg_calc_output_dimensions
0804fd38 g     O .rwdata	00000180 alt_fd_list
0803071c g     F .text	00000070 _getc_r
0803078c g     F .text	00000088 getc
08009b04 g     F .text	00000074 jpeg_set_linear_quality
0804ab78 g     F .text	00000090 alt_find_dev
08031368 g     F .text	00000148 memcpy
08042c48 g     F .text	0000025c __hexnan
0802f394 g     F .text	0000000c _cleanup_r
080294bc g     F .text	0000005c jround_up
0804528c g     F .text	000000dc .hidden __floatsidf
0804adcc g     F .text	00000080 alt_fs_reg
0804b288 g     F .text	0000007c alt_io_redirect
0804481c g     F .text	000000f4 .hidden __ltdf2
0804c1b8 g       *ABS*	00000000 __DTOR_END__
08009da0 g     F .text	000001c8 jpeg_set_defaults
080318cc g     F .text	00000014 puts
08049334 g     F .text	00000090 alt_ro_zipfs_open
0803a224 g     F .text	000000d8 mbrtowc
0803bb9c g     F .text	00000074 __fpclassifyd
0803b3bc g     F .text	000000a4 __ratio
08041f74 g     F .text	0000001c __vfiprintf_internal
08049944 g     F .text	00000034 alt_up_pixel_buffer_dma_check_swap_buffers_status
0804854c g     F .text	0000021c altera_avalon_jtag_uart_read
08025334 g     F .text	00000024 jpeg_mem_init
08030b34 g     F .text	00000014 malloc
08031638 g     F .text	00000030 _printf_r
08029474 g     F .text	00000048 jdiv_round_up
0802ccfc g     F .text	00000064 .hidden __udivsi3
08045644 g     F .text	000000a4 isatty
0803a00c g     F .text	00000030 iswspace
0800c3a8 g     F .text	000000c8 jinit_phuff_encoder
0804f058 g     O .rodata	000000c8 __mprec_tens
08049d7c g     F .text	00000210 alt_up_pixel_buffer_dma_draw_hline
0802cb04 g     F .text	00000100 jinit_write_targa
0803a0b8 g     F .text	0000000c __locale_charset
08043d44 g     F .text	000000c8 .hidden __lesf2
080430ec g     F .text	00000074 .hidden __fixunsdfsi
0804bd88 g     F .text	00000090 alt_icache_flush
08052d68 g     O .bss	00000004 __malloc_top_pad
0803f52c g     F .text	00000070 __ssrefill_r
08048a94 g     F .text	00000040 perf_get_num_starts
0803dcdc g     F .text	0000001c strtoul
080510a0 g     O .rwdata	00000004 __mb_cur_max
0803a0e8 g     F .text	0000000c _localeconv_r
0803dcf8 g     F .text	00000320 _strtoull_r
0803a9e8 g     F .text	0000003c __i2b
08039afc g     F .text	000004bc __sfvwrite_r
08031b58 g     F .text	00000054 _sbrk_r
0804b92c g     F .text	00000080 alt_program_intel
0804a2a0 g     F .text	00000084 helper_plot_pixel
080252dc g     F .text	00000058 jpeg_open_backing_store
0803b5d8 g     F .text	00000060 _read_r
0804a918 g     F .text	00000078 alt_dcache_flush
080510bc g     O .rwdata	00000004 alt_max_fd
08046adc g     F .text	0000003c alt_read_query_entry_8bit
0802efe0 g     F .text	000000f0 _fclose_r
0804b9ac g     F .text	0000018c alt_erase_block_intel
0802f35c g     F .text	00000030 fflush
08052d64 g     O .bss	00000004 __malloc_max_sbrked_mem
0803425c g     F .text	000017bc __ssvfscanf_r
0800f1b4 g     F .text	00000034 jpeg_abort_decompress
08043e0c g     F .text	000008ac .hidden __adddf3
08043c10 g     F .text	00000078 .hidden __nesf2
0800fb44 g     F .text	000001bc jpeg_start_decompress
0803b164 g     F .text	0000010c __b2d
08003bb4 g     F .text	00000580 jinit_color_converter
08049978 g     F .text	00000128 alt_up_pixel_buffer_dma_clear_screen
080436d8 g     F .text	00000538 .hidden __umoddi3
08045810 g     F .text	000000d4 lseek
0805108c g     O .rwdata	00000004 _global_impure_ptr
0800987c g     F .text	0000005c jpeg_destroy
0803b638 g     F .text	00000564 _realloc_r
08052ebc g       *ABS*	00000000 __bss_end
0804b0d4 g     F .text	000000f0 alt_iic_isr_register
08029518 g     F .text	000000d4 jcopy_sample_rows
08049aa0 g     F .text	000002dc alt_up_pixel_buffer_dma_draw_box
0804b3a0 g     F .text	00000108 alt_tick
0804f1e2 g     O .rodata	00000100 __hexdig
08043160 g     F .text	00000578 .hidden __udivdi3
0801abd8 g     F .text	000000f8 jpeg_new_colormap
08042274 g     F .text	00000024 _fputwc_r
0804f030 g     O .rodata	00000028 __mprec_bigtens
0803a7cc g     F .text	00000104 __s2b
0802ecf4 g     F .text	000000a8 .hidden __floatunsidf
0803aea4 g     F .text	00000060 __mcmp
0801ea84 g     F .text	0000017c jpeg_read_coefficients
0800992c g     F .text	00000054 jpeg_alloc_huff_table
08012d34 g     F .text	00000400 jinit_color_deconverter
0802f6fc g     F .text	00000018 __fp_lock_all
0804b088 g     F .text	0000004c alt_ic_irq_enabled
08006f04 g     F .text	00000140 jinit_c_main_controller
0804b304 g     F .text	0000009c alt_alarm_stop
0803d770 g     F .text	0000001c strtol
08052d88 g     O .bss	00000004 alt_irq_active
0802ffd8 g     F .text	00000444 _fseeko_r
080494ac g     F .text	0000013c alt_ro_zipfs_seek
080000ec g     F .exceptions	000000d4 alt_irq_handler
0804fd10 g     O .rwdata	00000028 alt_dev_null
08031eb4 g     F .text	00000068 _strdup_r
0804e728 g     O .rodata	000001e4 jpeg_std_message_table
08046ff8 g     F .text	0000009c alt_set_flash_algorithm_func
08001ccc g     F .text	000000cc jpeg_write_marker
08013da0 g     F .text	00000214 jpeg_fill_bit_buffer
0804a990 g     F .text	00000048 alt_dcache_flush_all
0803a8d0 g     F .text	00000068 __hi0bits
0804a1d8 g     F .text	000000c8 alt_up_pixel_buffer_dma_draw_rectangle
0804520c g     F .text	00000080 .hidden __fixdfsi
08046b98 g     F .text	00000044 alt_write_flash_command_8bit_device_8bit_mode
0803d420 g     F .text	00000018 strtod
080291dc g     F .text	00000298 jinit_2pass_quantizer
080510dc g       *ABS*	00000000 __ram_rwdata_end
080510b4 g     O .rwdata	00000008 alt_dev_list
0801b9f8 g     F .text	00000120 jinit_merged_upsampler
0802f884 g     F .text	00000044 _fputc_r
08045e84 g     F .text	000000f8 write
080316a4 g     F .text	000000a0 _putc_r
08006a94 g     F .text	00000130 jinit_huff_encoder
0804a324 g     F .text	00000248 alt_up_pixel_buffer_dma_draw_line
08043c88 g     F .text	000000bc .hidden __gtsf2
0805109c g     O .rwdata	00000004 environ
0804f46c g       *ABS*	00000000 __ram_rodata_end
08045558 g     F .text	000000b0 fstat
0802f860 g     F .text	00000024 fprintf
0804481c g     F .text	000000f4 .hidden __ledf2
0801f194 g     F .text	0000083c jpeg_fdct_float
08047e4c g     F .text	000000d8 alt_check_primary_table
0803ac1c g     F .text	00000140 __pow5mult
08040b18 g     F .text	0000145c ___vfiprintf_internal_r
08052d78 g     O .bss	00000004 __nlocale_changed
0802cd60 g     F .text	00000058 .hidden __umodsi3
0800f180 g     F .text	00000034 jpeg_destroy_decompress
0804663c g     F .text	00000064 alt_flash_cfi_read
08046d90 g     F .text	00000038 alt_write_native_8bit
0801f0d4 g     F .text	000000c0 jpeg_std_error
0800efa8 g     F .text	000001d8 jpeg_CreateDecompress
08052ebc g       *ABS*	00000000 end
08046bdc g     F .text	00000078 alt_write_flash_command_16bit_device_8bit_mode
0803041c g     F .text	0000001c fseeko
0804ea2c g     O .rodata	00000140 jpeg_natural_order
0802ffbc g     F .text	0000001c fseek
08047114 g     F .text	000005c8 alt_read_cfi_table
08025358 g     F .text	00000024 jpeg_mem_term
08000320 g     F .text	0000002c read_stdin
08048088 g     F .text	000000c0 altera_avalon_jtag_uart_init
0801639c g     F .text	000001cc jinit_d_main_controller
0804c1b8 g       *ABS*	00000000 __CTOR_LIST__
10000000 g       *ABS*	00000000 __alt_stack_pointer
0802ef44 g     F .text	00000064 .hidden __clzsi2
0801d8dc g     F .text	00000174 jinit_d_post_controller
08048768 g     F .text	00000224 altera_avalon_jtag_uart_write
08046278 g     F .text	00000090 alt_flash_cfi_init
0802f6ec g     F .text	00000004 __sfp_lock_acquire
0803a39c g     F .text	000000e4 memchr
08035a18 g     F .text	000021f8 ___vfprintf_internal_r
08031bac g     F .text	00000058 _sprintf_r
0802fca8 g     F .text	00000310 _free_r
0803a0c4 g     F .text	00000010 __locale_mb_cur_max
08007ff0 g     F .text	000000cc jinit_marker_writer
0801ffc4 g     F .text	00000718 jpeg_fdct_islow
08031ad0 g     F .text	00000074 __srget_r
08038048 g     F .text	00000180 __call_exitprocs
080020f4 g     F .text	000001a8 jpeg_write_raw_data
08026b74 g     F .text	00000148 jinit_1pass_quantizer
08024f30 g     F .text	0000029c jinit_memory_mgr
0800f94c g     F .text	0000008c jpeg_has_multiple_scans
0803f424 g     F .text	00000108 _sungetc_r
08052d74 g     O .bss	00000004 __mlocale_changed
08051094 g     O .rwdata	00000004 __malloc_sbrk_base
080001c0 g     F .text	0000004c _start
08052d8c g     O .bss	00000004 _alt_tick_rate
0803d78c g     F .text	00000304 _strtoll_r
0804c148 g     F .text	00000070 .hidden __floatundidf
0803ad5c g     F .text	00000148 __lshift
08052d90 g     O .bss	00000004 _alt_nticks
08045c38 g     F .text	000000fc read
08021334 g     F .text	00000a60 jpeg_idct_ifast
08045fe8 g     F .text	0000025c alt_sys_init
0802dbd0 g     F .text	00000124 .hidden __floatsisf
0803e018 g     F .text	000001d0 __ssprint_r
080315d8 g     F .text	00000060 _open_r
0804c030 g     F .text	00000118 __register_exitproc
080252ac g     F .text	00000030 jpeg_mem_available
08031fb4 g     F .text	000000d0 strncmp
08029638 g     F .text	00000040 jzero_far
08046b18 g     F .text	00000040 alt_read_query_entry_16bit
080135f4 g     F .text	00000104 jinit_inverse_dct
0803aa24 g     F .text	000001f8 __multiply
080483f4 g     F .text	00000068 altera_avalon_jtag_uart_close
0804f46c g       *ABS*	00000000 __ram_rwdata_start
0804c1b8 g       *ABS*	00000000 __ram_rodata_start
08052d94 g     O .bss	00000028 __malloc_current_mallinfo
08043c10 g     F .text	00000078 .hidden __eqsf2
08046e34 g     F .text	000001c4 alt_set_flash_width_func
0803b270 g     F .text	0000014c __d2b
0800f760 g     F .text	00000160 jpeg_consume_input
08047f24 g     F .text	00000060 altera_avalon_jtag_uart_read_fd
0803da90 g     F .text	0000024c _strtoul_r
0804ae4c g     F .text	000000a4 alt_get_fd
0804be48 g     F .text	00000158 alt_busy_sleep
08023000 g     F .text	00000480 jpeg_idct_2x2
0800f8c0 g     F .text	0000008c jpeg_input_complete
0802ab38 g     F .text	00000224 jinit_write_bmp
08037ff4 g     F .text	00000054 _close_r
0804b534 g     F .text	00000210 alt_erase_block_amd
0804898c g     F .text	000000bc perf_get_section_time
0801220c g     F .text	00000260 jinit_d_coef_controller
0804bfb4 g     F .text	0000007c memcmp
08047fe4 g     F .text	00000050 altera_avalon_jtag_uart_close_fd
08052ebc g       *ABS*	00000000 __alt_stack_base
08048034 g     F .text	00000054 altera_avalon_jtag_uart_ioctl_fd
0803061c g     F .text	000000cc _fwrite_r
08031c70 g     F .text	0000007c sscanf
080019d0 g     F .text	00000104 jpeg_suppress_tables
08037ea0 g     F .text	00000154 __swsetup_r
080476dc g     F .text	00000770 alt_read_cfi_width
0802dcf4 g     F .text	000008e8 .hidden __divdf3
0802f5ac g     F .text	00000118 __sfp
0803b4d4 g     F .text	00000078 __copybits
08048a48 g     F .text	0000004c perf_get_total_time
0804f890 g     O .rwdata	00000408 __malloc_av_
0802f6f8 g     F .text	00000004 __sinit_lock_release
0802e5dc g     F .text	00000718 .hidden __muldf3
08031d64 g     F .text	00000054 __sread
0802fb50 g     F .text	00000034 fread
0804ac08 g     F .text	00000108 alt_find_file
08014948 g     F .text	000000ec jinit_huff_decoder
0800199c g     F .text	00000034 jpeg_abort_compress
0804aa14 g     F .text	000000a4 alt_dev_llist_insert
08045960 g     F .text	00000024 __malloc_lock
0802f838 g     F .text	00000028 _fprintf_r
08045d98 g     F .text	000000b0 sbrk
08032084 g     F .text	000021d8 ___svfprintf_internal_r
08031ea0 g     F .text	00000014 strdup
0802f300 g     F .text	0000005c _fflush_r
0804204c g     F .text	000000c4 _calloc_r
080510c8 g     O .rwdata	00000008 alt_flash_dev_list
08046ca4 g     F .text	0000004c alt_write_flash_command_16bit_device_16bit_mode
0802f820 g     F .text	00000018 fopen
08052d4c g       *ABS*	00000000 __bss_start
080314b0 g     F .text	00000128 memset
080012c0 g     F .text	000004cc main
08009980 g     F .text	00000184 jpeg_add_quant_table
0800f1e8 g     F .text	000000cc jpeg_set_marker_processor
080097f8 g     F .text	00000084 jpeg_abort
08052d84 g     O .bss	00000004 alt_envp
08052d60 g     O .bss	00000004 __malloc_max_total_mem
080498e4 g     F .text	00000060 alt_up_pixel_buffer_dma_swap_buffers
08047f84 g     F .text	00000060 altera_avalon_jtag_uart_write_fd
08037e28 g     F .text	00000018 __swbuf
08043d44 g     F .text	000000c8 .hidden __ltsf2
0802f924 g     F .text	0000022c _fread_r
0800f668 g     F .text	000000f8 jpeg_read_header
08031e98 g     F .text	00000008 __sclose
10000000 g       *ABS*	00000000 __alt_heap_limit
08001e6c g     F .text	000000f8 jpeg_start_compress
0802f0d0 g     F .text	00000014 fclose
080098d8 g     F .text	00000054 jpeg_alloc_quant_table
0803d538 g     F .text	00000238 _strtol_r
0802ed9c g     F .text	000001a8 .hidden __truncdfsf2
08030858 g     F .text	00000104 _findenv_r
08001968 g     F .text	00000034 jpeg_destroy_compress
080383c8 g     F .text	00001688 _dtoa_r
08030b5c g     F .text	0000080c _malloc_r
08001d98 g     F .text	000000d4 jpeg_write_tables
08043000 g     F .text	00000030 __ascii_wctomb
08009f68 g     F .text	000000f0 jpeg_default_colorspace
0801d180 g     F .text	0000013c jinit_phuff_decoder
080510c0 g     O .rwdata	00000004 alt_errno
0802523c g     F .text	00000034 jpeg_get_large
08040784 g     F .text	000000d4 __submore
08046d40 g     F .text	00000050 alt_write_flash_command_32bit_device_32bit_mode
080454c4 g     F .text	00000024 __env_unlock
08030814 g     F .text	00000018 _findenv
08030494 g     F .text	000000c4 _fwalk
080466a0 g     F .text	0000015c alt_write_value_to_flash
0803a340 g     F .text	0000005c _mbtowc_r
08046dc8 g     F .text	00000038 alt_write_native_16bit
08031744 g     F .text	000000c8 putc
0802cc04 g     F .text	00000084 .hidden __divsi3
0800f9d8 g     F .text	0000016c jpeg_finish_decompress
080493c4 g     F .text	000000e8 alt_ro_zipfs_read
0802fb84 g     F .text	00000124 _malloc_trim_r
0804c1b8 g       *ABS*	00000000 __CTOR_END__
08019a7c g     F .text	000001e8 jpeg_resync_to_restart
0802d280 g     F .text	000003fc .hidden __mulsf3
08049660 g     F .text	00000058 alt_ro_zipfs_check_valid
08010808 g     F .text	00000110 jpeg_stdio_src
0803bce8 g     F .text	000000dc strcmp
0800178c g     F .text	000001dc jpeg_CreateCompress
0804c1b8 g       *ABS*	00000000 __flash_rodata_start
0804c1b8 g       *ABS*	00000000 __DTOR_LIST__
080446b8 g     F .text	00000088 .hidden __nedf2
080495e8 g     F .text	00000078 alt_ro_zipfs_fstat
08045fb0 g     F .text	00000038 alt_irq_init
08045d34 g     F .text	00000064 alt_release_fd
08031c04 g     F .text	0000006c sprintf
0804ebab g     O .rodata	00000100 .hidden __clz_tab
08052d70 g     O .bss	00000004 _PathLocale
10000000 g       *ABS*	00000000 __alt_mem_generic_tristate_controller_0
0803d438 g     F .text	00000100 strtof
0804bfa0 g     F .text	00000014 atexit
08025270 g     F .text	0000003c jpeg_free_large
08043c88 g     F .text	000000bc .hidden __gesf2
08037e40 g     F .text	00000060 _write_r
0803a0f4 g     F .text	00000018 setlocale
08004c68 g     F .text	00000174 jinit_forward_dct
0803bce0 g     F .text	00000008 nanf
08051090 g     O .rwdata	00000004 _impure_ptr
08052d7c g     O .bss	00000004 alt_argc
0802f0e4 g     F .text	0000021c __sflush_r
0803a178 g     F .text	000000ac _mbrtowc_r
0804ab18 g     F .text	00000060 _do_dtors
0803a0e0 g     F .text	00000008 __locale_cjk_lang
0802ffb8 g     F .text	00000004 _fseek_r
080318fc g     F .text	000001d4 __srefill_r
08000020 g       .exceptions	00000000 alt_irq_entry
0803a2fc g     F .text	00000044 __ascii_mbtowc
0803b100 g     F .text	00000064 __ulp
0802f714 g     F .text	00000018 __fp_unlock_all
08006bc4 g     F .text	0000012c jinit_compress_master
0802f8c8 g     F .text	0000005c fputc
0800020c g     F .text	00000114 keymatch
080510ac g     O .rwdata	00000008 alt_fs_list
08046c54 g     F .text	00000050 alt_write_flash_command_32bit_device_8bit_mode
08019cc4 g     F .text	0000011c jinit_marker_reader
08029da4 g     F .text	000000c8 read_color_map
0803f690 g     F .text	000010f4 __ssvfiscanf_r
08000020 g       *ABS*	00000000 __ram_exceptions_start
0803a10c g     F .text	0000000c localeconv
08001ad4 g     F .text	000001f8 jpeg_finish_compress
08000000 g       *ABS*	00000000 __alt_mem_new_sdram_controller_0
0804af24 g     F .text	00000050 alt_ic_isr_register
0800ffb4 g     F .text	0000018c jpeg_read_raw_data
080306e8 g     F .text	00000034 fwrite
0802c2f8 g     F .text	000001c4 jinit_write_ppm
08031cec g     F .text	00000078 _sscanf_r
080510dc g       *ABS*	00000000 _edata
08052ebc g       *ABS*	00000000 _end
0804ad10 g     F .text	00000068 alt_flash_open_dev
08042110 g     F .text	00000164 __fputwc
080001c0 g       *ABS*	00000000 __ram_exceptions_end
0804845c g     F .text	000000f0 altera_avalon_jtag_uart_ioctl
0804affc g     F .text	0000008c alt_ic_irq_disable
08031dc0 g     F .text	0000007c __swrite
08051098 g     O .rwdata	00000004 __malloc_trim_threshold
08048ad4 g     F .text	00000024 alt_get_performance_counter_base
0804b4a8 g     F .text	00000024 altera_nios2_qsys_irq_init
0803a0d4 g     F .text	0000000c __locale_msgcharset
08022928 g     F .text	000006d8 jpeg_idct_4x4
0802efa8 g     F .text	00000038 exit
08030558 g     F .text	000000c4 _fwalk_reent
0803af04 g     F .text	000001fc __mdiff
0804ad78 g     F .text	00000054 alt_flash_close_dev
0802cc88 g     F .text	00000074 .hidden __modsi3
08051088 g     O .rwdata	00000004 __ctype_ptr__
10000000 g       *ABS*	00000000 __alt_data_end
08000020 g     F .exceptions	00000000 alt_exception
0802f6f0 g     F .text	00000004 __sfp_lock_release
0802bb70 g     F .text	000001e0 jinit_write_gif
0800e0c0 g     F .text	0000034c jinit_downsampler
0803bc10 g     F .text	000000d0 __sccl
0804ecab g     O .rodata	00000101 _ctype_
080510a4 g     O .rwdata	00000004 __mbtowc
08009bfc g     F .text	00000050 jpeg_set_quality
08010540 g     F .text	000000ac jpeg_stdio_dest
0802f72c g     F .text	000000f4 _fopen_r
080454e8 g     F .text	00000034 _exit
0804a7ec g     F .text	0000012c alt_alarm_start
0804308c g     F .text	00000060 .hidden __muldi3
08030978 g     F .text	000001bc __smakebuf_r
08046e00 g     F .text	00000034 alt_write_native_32bit
08031f1c g     F .text	00000098 strlen
08045aa8 g     F .text	00000154 open
08001f64 g     F .text	00000190 jpeg_write_scanlines
08044740 g     F .text	000000dc .hidden __gedf2
08042418 g     F .text	00000830 __gethex
080295ec g     F .text	0000004c jcopy_block_row
080465b0 g     F .text	0000008c alt_flash_cfi_get_info
080510a8 g     O .rwdata	00000004 __wctomb
08040b00 g     F .text	00000018 __sprint_r
0800e40c g     F .text	000000cc jpeg_write_coefficients
0804aef0 g     F .text	00000034 alt_icache_flush_all
080510d0 g     O .rwdata	00000004 alt_priority_mask
0804af74 g     F .text	00000088 alt_ic_irq_enable
08025200 g     F .text	0000003c jpeg_free_small
08037c10 g     F .text	0000001c __vfprintf_internal
08010214 g     F .text	00000118 jpeg_finish_output
08043030 g     F .text	0000005c _wctomb_r
080454a0 g     F .text	00000024 __env_lock
0800034c g     F .text	0000002c write_stdout
08009694 g     F .text	00000164 jinit_c_master_control
08044910 g     F .text	000008fc .hidden __subdf3
08010140 g     F .text	000000d4 jpeg_start_output
0803a938 g     F .text	000000b0 __lo0bits
080510d4 g     O .rwdata	00000008 alt_alarm_list
08040858 g     F .text	00000194 _ungetc_r
0804aab8 g     F .text	00000060 _do_ctors
08002f6c g     F .text	000001d0 jinit_c_coef_controller
08042f40 g     F .text	000000c0 wcrtomb
080453a4 g     F .text	000000d0 close
0802cdb8 g     F .text	000004c8 .hidden __addsf3
0804b4cc g     F .text	00000068 alt_program_amd
08045750 g     F .text	00000084 alt_load
08005188 g     F .text	00000270 jpeg_make_c_derived_tbl
080011cc g     F .text	000000f4 capture_cmd_args
08042298 g     F .text	00000080 fputwc
0801e5fc g     F .text	00000488 jinit_upsampler
08030b48 g     F .text	00000014 free
0802f6f4 g     F .text	00000004 __sinit_lock_acquire
0803a6ac g     F .text	00000120 __multadd
0803a684 g     F .text	00000028 _Bfree
0803095c g     F .text	0000001c _getenv_r
08048d9c g     F .text	00000134 check_directory_header



Disassembly of section .entry:

08000000 <__reset>:
#if NIOS2_ICACHE_SIZE > 0 && defined(ALT_ALLOW_CODE_AT_RESET) && !defined(ALT_SIM_OPTIMIZE)
    /* Assume the instruction cache size is always a power of two. */
#if NIOS2_ICACHE_SIZE > 0x8000
    movhi r2, %hi(NIOS2_ICACHE_SIZE)
#else
    movui r2, NIOS2_ICACHE_SIZE
 8000000:	00840014 	movui	r2,4096
#endif

0:
    initi r2
 8000004:	1001483a 	initi	r2
    addi r2, r2, -NIOS2_ICACHE_LINE_SIZE
 8000008:	10bff804 	addi	r2,r2,-32
    bgt r2, zero, 0b
 800000c:	00bffd16 	blt	zero,r2,8000004 <__reset+0x4>
 * Jump to the _start entry point in the .text section if reset code
 * is allowed or if optimizing for RTL simulation.
 */
#if defined(ALT_ALLOW_CODE_AT_RESET) || defined(ALT_SIM_OPTIMIZE)
    /* Jump to the _start entry point in the .text section. */
    movhi r1, %hi(_start)
 8000010:	00420034 	movhi	at,2048
    ori r1, r1, %lo(_start)
 8000014:	08407014 	ori	at,at,448
    jmp r1
 8000018:	0800683a 	jmp	at
 800001c:	00000000 	call	0 <__alt_mem_new_sdram_controller_0-0x8000000>

Disassembly of section .exceptions:

08000020 <alt_exception>:

#else /* ALT_EXCEPTION_STACK disabled */
        /* 
         * Reserve space on normal stack for registers about to be pushed.
         */
        addi  sp, sp, -76
 8000020:	deffed04 	addi	sp,sp,-76
         * documentation for details).
         *
         * Leave a gap in the stack frame at 4(sp) for the muldiv handler to
         * store zero into.
         */
        stw   ra,  0(sp)
 8000024:	dfc00015 	stw	ra,0(sp)
        stw   r1,   8(sp)
 8000028:	d8400215 	stw	at,8(sp)
        stw   r2,  12(sp)
 800002c:	d8800315 	stw	r2,12(sp)
        stw   r3,  16(sp)
 8000030:	d8c00415 	stw	r3,16(sp)
        stw   r4,  20(sp)
 8000034:	d9000515 	stw	r4,20(sp)
        stw   r5,  24(sp)
 8000038:	d9400615 	stw	r5,24(sp)
        stw   r6,  28(sp)
 800003c:	d9800715 	stw	r6,28(sp)
        stw   r7,  32(sp)
 8000040:	d9c00815 	stw	r7,32(sp)
        rdctl r5, estatus   /* Read early to avoid usage stall */
 8000044:	000b307a 	rdctl	r5,estatus
        stw   r8,  36(sp)
 8000048:	da000915 	stw	r8,36(sp)
        stw   r9,  40(sp)
 800004c:	da400a15 	stw	r9,40(sp)
        stw   r10, 44(sp)
 8000050:	da800b15 	stw	r10,44(sp)
        stw   r11, 48(sp)
 8000054:	dac00c15 	stw	r11,48(sp)
        stw   r12, 52(sp)
 8000058:	db000d15 	stw	r12,52(sp)
        stw   r13, 56(sp)
 800005c:	db400e15 	stw	r13,56(sp)
        stw   r14, 60(sp)
 8000060:	db800f15 	stw	r14,60(sp)
        stw   r15, 64(sp)
 8000064:	dbc01015 	stw	r15,64(sp)
        /*
         * ea-4 contains the address of the instruction being executed
         * when the exception occured. For interrupt exceptions, we will
         * will be re-issue the isntruction. Store it in 72(sp)
         */
        stw   r5,  68(sp)  /* estatus */
 8000068:	d9401115 	stw	r5,68(sp)
        addi  r15, ea, -4  /* instruction that caused exception */
 800006c:	ebffff04 	addi	r15,ea,-4
        stw   r15,  72(sp)
 8000070:	dbc01215 	stw	r15,72(sp)
#else
        /*
         * Test to see if the exception was a software exception or caused 
         * by an external interrupt, and vector accordingly.
         */
        rdctl r4, ipending
 8000074:	0009313a 	rdctl	r4,ipending
        andi  r2, r5, 1
 8000078:	2880004c 	andi	r2,r5,1
        beq   r2, zero, .Lnot_irq
 800007c:	10000326 	beq	r2,zero,800008c <alt_exception+0x6c>
        beq   r4, zero, .Lnot_irq
 8000080:	20000226 	beq	r4,zero,800008c <alt_exception+0x6c>
        /*
         * Now that all necessary registers have been preserved, call 
         * alt_irq_handler() to process the interrupts.
         */

        call alt_irq_handler
 8000084:	80000ec0 	call	80000ec <alt_irq_handler>

        .section .exceptions.irqreturn, "xa"

        br    .Lexception_exit
 8000088:	00000306 	br	8000098 <alt_exception_unknown+0x4>
         * upon completion, so we write ea (address of instruction *after*
         * the one where the exception occured) into 72(sp). The actual
         * instruction that caused the exception is written in r2, which these
         * handlers will utilize.
         */
        stw   ea,  72(sp)  /* Don't re-issue */
 800008c:	df401215 	stw	ea,72(sp)
        ldw   r2, -4(ea)   /* Instruction that caused exception */
 8000090:	e8bfff17 	ldw	r2,-4(ea)

08000094 <alt_exception_unknown>:
#ifdef NIOS2_HAS_DEBUG_STUB
       /*
        *  Either tell the user now (if there is a debugger attached) or go into
        *  the debug monitor which will loop until a debugger is attached.
        */
        break
 8000094:	003da03a 	break	0
        /* 
         * Restore the saved registers, so that all general purpose registers 
         * have been restored to their state at the time the interrupt occured.
         */

        ldw   r5,  68(sp)
 8000098:	d9401117 	ldw	r5,68(sp)
        ldw   ea,  72(sp)  /* This becomes the PC once eret is executed */
 800009c:	df401217 	ldw	ea,72(sp)
        ldw   ra,   0(sp)
 80000a0:	dfc00017 	ldw	ra,0(sp)

        wrctl estatus, r5
 80000a4:	2801707a 	wrctl	estatus,r5

        ldw   r1,   8(sp)
 80000a8:	d8400217 	ldw	at,8(sp)
        ldw   r2,  12(sp)
 80000ac:	d8800317 	ldw	r2,12(sp)
        ldw   r3,  16(sp)
 80000b0:	d8c00417 	ldw	r3,16(sp)
        ldw   r4,  20(sp)
 80000b4:	d9000517 	ldw	r4,20(sp)
        ldw   r5,  24(sp)
 80000b8:	d9400617 	ldw	r5,24(sp)
        ldw   r6,  28(sp)
 80000bc:	d9800717 	ldw	r6,28(sp)
        ldw   r7,  32(sp)
 80000c0:	d9c00817 	ldw	r7,32(sp)

#if defined(ALT_EXCEPTION_STACK) && defined(ALT_STACK_CHECK)
        ldw   et, %gprel(alt_exception_old_stack_limit)(gp)
#endif

        ldw   r8,  36(sp)
 80000c4:	da000917 	ldw	r8,36(sp)
        ldw   r9,  40(sp)
 80000c8:	da400a17 	ldw	r9,40(sp)
        ldw   r10, 44(sp)
 80000cc:	da800b17 	ldw	r10,44(sp)
        ldw   r11, 48(sp)
 80000d0:	dac00c17 	ldw	r11,48(sp)
        ldw   r12, 52(sp)
 80000d4:	db000d17 	ldw	r12,52(sp)
        ldw   r13, 56(sp)
 80000d8:	db400e17 	ldw	r13,56(sp)
        ldw   r14, 60(sp)
 80000dc:	db800f17 	ldw	r14,60(sp)
        ldw   r15, 64(sp)
 80000e0:	dbc01017 	ldw	r15,64(sp)
        stw   et, %gprel(alt_stack_limit_value)(gp)
        stw   zero, %gprel(alt_exception_old_stack_limit)(gp)
#endif /* ALT_STACK_CHECK */
        ldw   sp,  76(sp)
#else /* ALT_EXCEPTION_STACK disabled */
        addi  sp, sp, 76
 80000e4:	dec01304 	addi	sp,sp,76

        /*
         * Return to the interrupted instruction.
         */

        eret
 80000e8:	ef80083a 	eret

080000ec <alt_irq_handler>:
 * instruction is present if the macro ALT_CI_INTERRUPT_VECTOR defined.
 */

void alt_irq_handler (void) __attribute__ ((section (".exceptions")));
void alt_irq_handler (void)
{
 80000ec:	defff904 	addi	sp,sp,-28
 80000f0:	dfc00615 	stw	ra,24(sp)
 80000f4:	df000515 	stw	fp,20(sp)
 80000f8:	df000504 	addi	fp,sp,20
  
  /*
   * Notify the operating system that we are at interrupt level.
   */ 
  
  ALT_OS_INT_ENTER();
 80000fc:	0001883a 	nop
#ifndef NIOS2_EIC_PRESENT
static ALT_INLINE alt_u32 ALT_ALWAYS_INLINE alt_irq_pending (void)
{
  alt_u32 active;

  NIOS2_READ_IPENDING (active);
 8000100:	0005313a 	rdctl	r2,ipending
 8000104:	e0bffe15 	stw	r2,-8(fp)

  return active;
 8000108:	e0bffe17 	ldw	r2,-8(fp)
   * Consider the case where the high priority interupt is asserted during
   * the interrupt entry sequence for a lower priority interrupt to see why
   * this is the case.
   */

  active = alt_irq_pending ();
 800010c:	e0bffb15 	stw	r2,-20(fp)

  do
  {
    i = 0;
 8000110:	e03ffd15 	stw	zero,-12(fp)
    mask = 1;
 8000114:	00800044 	movi	r2,1
 8000118:	e0bffc15 	stw	r2,-16(fp)
     * called to clear the interrupt condition.
     */

    do
    {
      if (active & mask)
 800011c:	e0fffb17 	ldw	r3,-20(fp)
 8000120:	e0bffc17 	ldw	r2,-16(fp)
 8000124:	1884703a 	and	r2,r3,r2
 8000128:	10001426 	beq	r2,zero,800017c <alt_irq_handler+0x90>
      { 
#ifdef ALT_ENHANCED_INTERRUPT_API_PRESENT
        alt_irq[i].handler(alt_irq[i].context); 
 800012c:	00820174 	movhi	r2,2053
 8000130:	108b6f04 	addi	r2,r2,11708
 8000134:	e0fffd17 	ldw	r3,-12(fp)
 8000138:	180690fa 	slli	r3,r3,3
 800013c:	10c5883a 	add	r2,r2,r3
 8000140:	10c00017 	ldw	r3,0(r2)
 8000144:	00820174 	movhi	r2,2053
 8000148:	108b6f04 	addi	r2,r2,11708
 800014c:	e13ffd17 	ldw	r4,-12(fp)
 8000150:	200890fa 	slli	r4,r4,3
 8000154:	1105883a 	add	r2,r2,r4
 8000158:	10800104 	addi	r2,r2,4
 800015c:	10800017 	ldw	r2,0(r2)
 8000160:	1009883a 	mov	r4,r2
 8000164:	183ee83a 	callr	r3
#else
        alt_irq[i].handler(alt_irq[i].context, i); 
#endif
        break;
 8000168:	0001883a 	nop
#ifndef NIOS2_EIC_PRESENT
static ALT_INLINE alt_u32 ALT_ALWAYS_INLINE alt_irq_pending (void)
{
  alt_u32 active;

  NIOS2_READ_IPENDING (active);
 800016c:	0005313a 	rdctl	r2,ipending
 8000170:	e0bfff15 	stw	r2,-4(fp)

  return active;
 8000174:	e0bfff17 	ldw	r2,-4(fp)
 8000178:	00000706 	br	8000198 <alt_irq_handler+0xac>
      }
      mask <<= 1;
 800017c:	e0bffc17 	ldw	r2,-16(fp)
 8000180:	1085883a 	add	r2,r2,r2
 8000184:	e0bffc15 	stw	r2,-16(fp)
      i++;
 8000188:	e0bffd17 	ldw	r2,-12(fp)
 800018c:	10800044 	addi	r2,r2,1
 8000190:	e0bffd15 	stw	r2,-12(fp)

    } while (1);
 8000194:	003fe106 	br	800011c <alt_irq_handler+0x30>

    active = alt_irq_pending ();
 8000198:	e0bffb15 	stw	r2,-20(fp)
    
  } while (active);
 800019c:	e0bffb17 	ldw	r2,-20(fp)
 80001a0:	103fdb1e 	bne	r2,zero,8000110 <alt_irq_handler+0x24>

  /*
   * Notify the operating system that interrupt processing is complete.
   */ 

  ALT_OS_INT_EXIT();
 80001a4:	0001883a 	nop
}
 80001a8:	0001883a 	nop
 80001ac:	e037883a 	mov	sp,fp
 80001b0:	dfc00117 	ldw	ra,4(sp)
 80001b4:	df000017 	ldw	fp,0(sp)
 80001b8:	dec00204 	addi	sp,sp,8
 80001bc:	f800283a 	ret

Disassembly of section .text:

080001c0 <_start>:

#if NIOS2_DCACHE_SIZE > 0 && (!defined(ALT_SIM_OPTIMIZE) || defined(NIOS2_ECC_PRESENT))

    /* Assume the data cache size is always a power of two. */
#if NIOS2_DCACHE_SIZE > 0x8000
    movhi r2, %hi(NIOS2_DCACHE_SIZE)
 80001c0:	00800074 	movhi	r2,1
#else
    movui r2, NIOS2_DCACHE_SIZE
#endif

0:
    initd 0(r2)
 80001c4:	10000033 	initd	0(r2)
#ifdef NIOS2_ECC_PRESENT
    addi r2, r2, -4
#else
    addi r2, r2, -NIOS2_DCACHE_LINE_SIZE
 80001c8:	10bff804 	addi	r2,r2,-32
#endif
    bgt r2, zero, 0b
 80001cc:	00bffd16 	blt	zero,r2,80001c4 <_start+0x4>

    /*
     * Now that the caches are initialized, set up the stack pointer and global pointer.
     * The values provided by the linker are assumed to be correctly aligned.
     */
    movhi sp, %hi(__alt_stack_pointer)
 80001d0:	06c40034 	movhi	sp,4096
    ori sp, sp, %lo(__alt_stack_pointer)
 80001d4:	dec00014 	ori	sp,sp,0
    movhi gp, %hi(_gp)
 80001d8:	06820174 	movhi	gp,2053
    ori gp, gp, %lo(_gp)
 80001dc:	d6a41e14 	ori	gp,gp,36984
 */
#ifndef ALT_SIM_OPTIMIZE
    /* Log that the BSS is about to be cleared. */
    ALT_LOG_PUTS(alt_log_msg_bss)

    movhi r2, %hi(__bss_start)
 80001e0:	00820174 	movhi	r2,2053
    ori r2, r2, %lo(__bss_start)
 80001e4:	108b5314 	ori	r2,r2,11596

    movhi r3, %hi(__bss_end)
 80001e8:	00c20174 	movhi	r3,2053
    ori r3, r3, %lo(__bss_end)
 80001ec:	18cbaf14 	ori	r3,r3,11964

    beq r2, r3, 1f
 80001f0:	10c00326 	beq	r2,r3,8000200 <_start+0x40>

0:
    stw zero, (r2)
 80001f4:	10000015 	stw	zero,0(r2)
    addi r2, r2, 4
 80001f8:	10800104 	addi	r2,r2,4
    bltu r2, r3, 0b
 80001fc:	10fffd36 	bltu	r2,r3,80001f4 <_start+0x34>
     * section aren't defined until alt_load() has been called).
     */
    mov   et, zero
#endif

    call alt_load
 8000200:	80457500 	call	8045750 <alt_load>

    /* Log that alt_main is about to be called. */
    ALT_LOG_PUTS(alt_log_msg_alt_main)

    /* Call the C entry point. It should never return. */
    call alt_main
 8000204:	80458e40 	call	80458e4 <alt_main>

08000208 <alt_after_alt_main>:

    /* Wait in infinite loop in case alt_main does return. */
alt_after_alt_main:
    br alt_after_alt_main
 8000208:	003fff06 	br	8000208 <alt_after_alt_main>

0800020c <keymatch>:
 * minchars is length of minimum legal abbreviation.
 */

GLOBAL(boolean)
keymatch (char * arg, const char * keyword, int minchars)
{
 800020c:	defff804 	addi	sp,sp,-32
 8000210:	df000715 	stw	fp,28(sp)
 8000214:	dc800615 	stw	r18,24(sp)
 8000218:	dc400515 	stw	r17,20(sp)
 800021c:	dc000415 	stw	r16,16(sp)
 8000220:	df000704 	addi	fp,sp,28
 8000224:	e13ffa15 	stw	r4,-24(fp)
 8000228:	e17ffb15 	stw	r5,-20(fp)
 800022c:	e1bffc15 	stw	r6,-16(fp)
  register int ca, ck;
  register int nmatched = 0;
 8000230:	0023883a 	mov	r17,zero

  while ((ca = *arg++) != '\0') {
 8000234:	00002606 	br	80002d0 <keymatch+0xc4>
    if ((ck = *keyword++) == '\0')
 8000238:	e0bffb17 	ldw	r2,-20(fp)
 800023c:	10c00044 	addi	r3,r2,1
 8000240:	e0fffb15 	stw	r3,-20(fp)
 8000244:	10800003 	ldbu	r2,0(r2)
 8000248:	14803fcc 	andi	r18,r2,255
 800024c:	9480201c 	xori	r18,r18,128
 8000250:	94bfe004 	addi	r18,r18,-128
 8000254:	9000021e 	bne	r18,zero,8000260 <keymatch+0x54>
      return FALSE;		/* arg longer than keyword, no good */
 8000258:	0005883a 	mov	r2,zero
 800025c:	00002906 	br	8000304 <keymatch+0xf8>
    if (isupper(ca))		/* force arg to lcase (assume ck is already) */
 8000260:	d0e00417 	ldw	r3,-32752(gp)
 8000264:	8005883a 	mov	r2,r16
 8000268:	10800044 	addi	r2,r2,1
 800026c:	1885883a 	add	r2,r3,r2
 8000270:	10800003 	ldbu	r2,0(r2)
 8000274:	10803fcc 	andi	r2,r2,255
 8000278:	108000cc 	andi	r2,r2,3
 800027c:	10800058 	cmpnei	r2,r2,1
 8000280:	10000f1e 	bne	r2,zero,80002c0 <keymatch+0xb4>
      ca = tolower(ca);
 8000284:	e43ff915 	stw	r16,-28(fp)
 8000288:	d0e00417 	ldw	r3,-32752(gp)
 800028c:	e0bff917 	ldw	r2,-28(fp)
 8000290:	10800044 	addi	r2,r2,1
 8000294:	1885883a 	add	r2,r3,r2
 8000298:	10800003 	ldbu	r2,0(r2)
 800029c:	10803fcc 	andi	r2,r2,255
 80002a0:	108000cc 	andi	r2,r2,3
 80002a4:	10800058 	cmpnei	r2,r2,1
 80002a8:	1000031e 	bne	r2,zero,80002b8 <keymatch+0xac>
 80002ac:	e0bff917 	ldw	r2,-28(fp)
 80002b0:	10800804 	addi	r2,r2,32
 80002b4:	00000106 	br	80002bc <keymatch+0xb0>
 80002b8:	e0bff917 	ldw	r2,-28(fp)
 80002bc:	1021883a 	mov	r16,r2
    if (ca != ck)
 80002c0:	84800226 	beq	r16,r18,80002cc <keymatch+0xc0>
      return FALSE;		/* no good */
 80002c4:	0005883a 	mov	r2,zero
 80002c8:	00000e06 	br	8000304 <keymatch+0xf8>
    nmatched++;			/* count matched characters */
 80002cc:	8c400044 	addi	r17,r17,1
keymatch (char * arg, const char * keyword, int minchars)
{
  register int ca, ck;
  register int nmatched = 0;

  while ((ca = *arg++) != '\0') {
 80002d0:	e0bffa17 	ldw	r2,-24(fp)
 80002d4:	10c00044 	addi	r3,r2,1
 80002d8:	e0fffa15 	stw	r3,-24(fp)
 80002dc:	10800003 	ldbu	r2,0(r2)
 80002e0:	14003fcc 	andi	r16,r2,255
 80002e4:	8400201c 	xori	r16,r16,128
 80002e8:	843fe004 	addi	r16,r16,-128
 80002ec:	803fd21e 	bne	r16,zero,8000238 <keymatch+0x2c>
    if (ca != ck)
      return FALSE;		/* no good */
    nmatched++;			/* count matched characters */
  }
  /* reached end of argument; fail if it's too short for unique abbrev */
  if (nmatched < minchars)
 80002f0:	e0bffc17 	ldw	r2,-16(fp)
 80002f4:	8880020e 	bge	r17,r2,8000300 <keymatch+0xf4>
    return FALSE;
 80002f8:	0005883a 	mov	r2,zero
 80002fc:	00000106 	br	8000304 <keymatch+0xf8>
  return TRUE;			/* A-OK */
 8000300:	00800044 	movi	r2,1
}
 8000304:	e6fffd04 	addi	sp,fp,-12
 8000308:	df000317 	ldw	fp,12(sp)
 800030c:	dc800217 	ldw	r18,8(sp)
 8000310:	dc400117 	ldw	r17,4(sp)
 8000314:	dc000017 	ldw	r16,0(sp)
 8000318:	dec00404 	addi	sp,sp,16
 800031c:	f800283a 	ret

08000320 <read_stdin>:
 * Non-Unix systems often require some hacking to get out of text mode.
 */

GLOBAL(FILE *)
read_stdin (void)
{
 8000320:	defffe04 	addi	sp,sp,-8
 8000324:	df000115 	stw	fp,4(sp)
 8000328:	df000104 	addi	fp,sp,4
  FILE * input_file = stdin;
 800032c:	d0a00617 	ldw	r2,-32744(gp)
 8000330:	10800117 	ldw	r2,4(r2)
 8000334:	e0bfff15 	stw	r2,-4(fp)
  if ((input_file = fdopen(fileno(stdin), READ_BINARY)) == NULL) {
    fprintf(stderr, "Cannot reopen stdin\n");
    exit(EXIT_FAILURE);
  }
#endif
  return input_file;
 8000338:	e0bfff17 	ldw	r2,-4(fp)
}
 800033c:	e037883a 	mov	sp,fp
 8000340:	df000017 	ldw	fp,0(sp)
 8000344:	dec00104 	addi	sp,sp,4
 8000348:	f800283a 	ret

0800034c <write_stdout>:


GLOBAL(FILE *)
write_stdout (void)
{
 800034c:	defffe04 	addi	sp,sp,-8
 8000350:	df000115 	stw	fp,4(sp)
 8000354:	df000104 	addi	fp,sp,4
  FILE * output_file = stdout;
 8000358:	d0a00617 	ldw	r2,-32744(gp)
 800035c:	10800217 	ldw	r2,8(r2)
 8000360:	e0bfff15 	stw	r2,-4(fp)
  if ((output_file = fdopen(fileno(stdout), WRITE_BINARY)) == NULL) {
    fprintf(stderr, "Cannot reopen stdout\n");
    exit(EXIT_FAILURE);
  }
#endif
  return output_file;
 8000364:	e0bfff17 	ldw	r2,-4(fp)
}
 8000368:	e037883a 	mov	sp,fp
 800036c:	df000017 	ldw	fp,0(sp)
 8000370:	dec00104 	addi	sp,sp,4
 8000374:	f800283a 	ret

08000378 <usage>:


LOCAL(void)
usage (void)
/* complain about bad command line */
{
 8000378:	defffe04 	addi	sp,sp,-8
 800037c:	dfc00115 	stw	ra,4(sp)
 8000380:	df000015 	stw	fp,0(sp)
 8000384:	d839883a 	mov	fp,sp
  fprintf(stderr, "usage: %s [switches] ", progname);
 8000388:	d0a00617 	ldw	r2,-32744(gp)
 800038c:	10800317 	ldw	r2,12(r2)
 8000390:	d0e73617 	ldw	r3,-25384(gp)
 8000394:	180d883a 	mov	r6,r3
 8000398:	01420174 	movhi	r5,2053
 800039c:	2971f004 	addi	r5,r5,-14400
 80003a0:	1009883a 	mov	r4,r2
 80003a4:	802f8600 	call	802f860 <fprintf>
#ifdef TWO_FILE_COMMANDLINE
  fprintf(stderr, "inputfile outputfile\n");
#else
  fprintf(stderr, "[inputfile]\n");
 80003a8:	d0a00617 	ldw	r2,-32744(gp)
 80003ac:	10800317 	ldw	r2,12(r2)
 80003b0:	100f883a 	mov	r7,r2
 80003b4:	01800304 	movi	r6,12
 80003b8:	01400044 	movi	r5,1
 80003bc:	01020174 	movhi	r4,2053
 80003c0:	2131f604 	addi	r4,r4,-14376
 80003c4:	80306e80 	call	80306e8 <fwrite>
#endif

  fprintf(stderr, "Switches (names may be abbreviated):\n");
 80003c8:	d0a00617 	ldw	r2,-32744(gp)
 80003cc:	10800317 	ldw	r2,12(r2)
 80003d0:	100f883a 	mov	r7,r2
 80003d4:	01800944 	movi	r6,37
 80003d8:	01400044 	movi	r5,1
 80003dc:	01020174 	movhi	r4,2053
 80003e0:	2131fa04 	addi	r4,r4,-14360
 80003e4:	80306e80 	call	80306e8 <fwrite>
  fprintf(stderr, "  -colors N      Reduce image to no more than N colors\n");
 80003e8:	d0a00617 	ldw	r2,-32744(gp)
 80003ec:	10800317 	ldw	r2,12(r2)
 80003f0:	100f883a 	mov	r7,r2
 80003f4:	01800dc4 	movi	r6,55
 80003f8:	01400044 	movi	r5,1
 80003fc:	01020174 	movhi	r4,2053
 8000400:	21320404 	addi	r4,r4,-14320
 8000404:	80306e80 	call	80306e8 <fwrite>
  fprintf(stderr, "  -fast          Fast, low-quality processing\n");
 8000408:	d0a00617 	ldw	r2,-32744(gp)
 800040c:	10800317 	ldw	r2,12(r2)
 8000410:	100f883a 	mov	r7,r2
 8000414:	01800b84 	movi	r6,46
 8000418:	01400044 	movi	r5,1
 800041c:	01020174 	movhi	r4,2053
 8000420:	21321204 	addi	r4,r4,-14264
 8000424:	80306e80 	call	80306e8 <fwrite>
  fprintf(stderr, "  -grayscale     Force grayscale output\n");
 8000428:	d0a00617 	ldw	r2,-32744(gp)
 800042c:	10800317 	ldw	r2,12(r2)
 8000430:	100f883a 	mov	r7,r2
 8000434:	01800a04 	movi	r6,40
 8000438:	01400044 	movi	r5,1
 800043c:	01020174 	movhi	r4,2053
 8000440:	21321e04 	addi	r4,r4,-14216
 8000444:	80306e80 	call	80306e8 <fwrite>
#ifdef IDCT_SCALING_SUPPORTED
  fprintf(stderr, "  -scale M/N     Scale output image by fraction M/N, eg, 1/8\n");
 8000448:	d0a00617 	ldw	r2,-32744(gp)
 800044c:	10800317 	ldw	r2,12(r2)
 8000450:	100f883a 	mov	r7,r2
 8000454:	01800f44 	movi	r6,61
 8000458:	01400044 	movi	r5,1
 800045c:	01020174 	movhi	r4,2053
 8000460:	21322904 	addi	r4,r4,-14172
 8000464:	80306e80 	call	80306e8 <fwrite>
#endif
#ifdef BMP_SUPPORTED
  fprintf(stderr, "  -bmp           Select BMP output format (Windows style)%s\n",
 8000468:	d0a00617 	ldw	r2,-32744(gp)
 800046c:	10800317 	ldw	r2,12(r2)
 8000470:	01820174 	movhi	r6,2053
 8000474:	31b23904 	addi	r6,r6,-14108
 8000478:	01420174 	movhi	r5,2053
 800047c:	29723a04 	addi	r5,r5,-14104
 8000480:	1009883a 	mov	r4,r2
 8000484:	802f8600 	call	802f860 <fprintf>
	  (DEFAULT_FMT == FMT_BMP ? " (default)" : ""));
#endif
#ifdef GIF_SUPPORTED
  fprintf(stderr, "  -gif           Select GIF output format%s\n",
 8000488:	d0a00617 	ldw	r2,-32744(gp)
 800048c:	10800317 	ldw	r2,12(r2)
 8000490:	01820174 	movhi	r6,2053
 8000494:	31b23904 	addi	r6,r6,-14108
 8000498:	01420174 	movhi	r5,2053
 800049c:	29724a04 	addi	r5,r5,-14040
 80004a0:	1009883a 	mov	r4,r2
 80004a4:	802f8600 	call	802f860 <fprintf>
	  (DEFAULT_FMT == FMT_GIF ? " (default)" : ""));
#endif
#ifdef BMP_SUPPORTED
  fprintf(stderr, "  -os2           Select BMP output format (OS/2 style)%s\n",
 80004a8:	d0a00617 	ldw	r2,-32744(gp)
 80004ac:	10800317 	ldw	r2,12(r2)
 80004b0:	01820174 	movhi	r6,2053
 80004b4:	31b23904 	addi	r6,r6,-14108
 80004b8:	01420174 	movhi	r5,2053
 80004bc:	29725604 	addi	r5,r5,-13992
 80004c0:	1009883a 	mov	r4,r2
 80004c4:	802f8600 	call	802f860 <fprintf>
	  (DEFAULT_FMT == FMT_OS2 ? " (default)" : ""));
#endif
#ifdef PPM_SUPPORTED
  fprintf(stderr, "  -pnm           Select PBMPLUS (PPM/PGM) output format%s\n",
 80004c8:	d0a00617 	ldw	r2,-32744(gp)
 80004cc:	10800317 	ldw	r2,12(r2)
 80004d0:	01820174 	movhi	r6,2053
 80004d4:	31b26504 	addi	r6,r6,-13932
 80004d8:	01420174 	movhi	r5,2053
 80004dc:	29726804 	addi	r5,r5,-13920
 80004e0:	1009883a 	mov	r4,r2
 80004e4:	802f8600 	call	802f860 <fprintf>
#ifdef RLE_SUPPORTED
  fprintf(stderr, "  -rle           Select Utah RLE output format%s\n",
	  (DEFAULT_FMT == FMT_RLE ? " (default)" : ""));
#endif
#ifdef TARGA_SUPPORTED
  fprintf(stderr, "  -targa         Select Targa output format%s\n",
 80004e8:	d0a00617 	ldw	r2,-32744(gp)
 80004ec:	10800317 	ldw	r2,12(r2)
 80004f0:	01820174 	movhi	r6,2053
 80004f4:	31b23904 	addi	r6,r6,-14108
 80004f8:	01420174 	movhi	r5,2053
 80004fc:	29727704 	addi	r5,r5,-13860
 8000500:	1009883a 	mov	r4,r2
 8000504:	802f8600 	call	802f860 <fprintf>
	  (DEFAULT_FMT == FMT_TARGA ? " (default)" : ""));
#endif
  fprintf(stderr, "Switches for advanced users:\n");
 8000508:	d0a00617 	ldw	r2,-32744(gp)
 800050c:	10800317 	ldw	r2,12(r2)
 8000510:	100f883a 	mov	r7,r2
 8000514:	01800744 	movi	r6,29
 8000518:	01400044 	movi	r5,1
 800051c:	01020174 	movhi	r4,2053
 8000520:	21328304 	addi	r4,r4,-13812
 8000524:	80306e80 	call	80306e8 <fwrite>
#ifdef DCT_ISLOW_SUPPORTED
  fprintf(stderr, "  -dct int       Use integer DCT method%s\n",
 8000528:	d0a00617 	ldw	r2,-32744(gp)
 800052c:	10800317 	ldw	r2,12(r2)
 8000530:	01820174 	movhi	r6,2053
 8000534:	31b23904 	addi	r6,r6,-14108
 8000538:	01420174 	movhi	r5,2053
 800053c:	29728b04 	addi	r5,r5,-13780
 8000540:	1009883a 	mov	r4,r2
 8000544:	802f8600 	call	802f860 <fprintf>
	  (JDCT_DEFAULT == JDCT_ISLOW ? " (default)" : ""));
#endif
#ifdef DCT_IFAST_SUPPORTED
  fprintf(stderr, "  -dct fast      Use fast integer DCT (less accurate)%s\n",
 8000548:	d0a00617 	ldw	r2,-32744(gp)
 800054c:	10800317 	ldw	r2,12(r2)
 8000550:	01820174 	movhi	r6,2053
 8000554:	31b26504 	addi	r6,r6,-13932
 8000558:	01420174 	movhi	r5,2053
 800055c:	29729604 	addi	r5,r5,-13736
 8000560:	1009883a 	mov	r4,r2
 8000564:	802f8600 	call	802f860 <fprintf>
	  (JDCT_DEFAULT == JDCT_IFAST ? " (default)" : ""));
#endif
#ifdef DCT_FLOAT_SUPPORTED
  fprintf(stderr, "  -dct float     Use floating-point DCT method%s\n",
 8000568:	d0a00617 	ldw	r2,-32744(gp)
 800056c:	10800317 	ldw	r2,12(r2)
 8000570:	01820174 	movhi	r6,2053
 8000574:	31b23904 	addi	r6,r6,-14108
 8000578:	01420174 	movhi	r5,2053
 800057c:	2972a504 	addi	r5,r5,-13676
 8000580:	1009883a 	mov	r4,r2
 8000584:	802f8600 	call	802f860 <fprintf>
	  (JDCT_DEFAULT == JDCT_FLOAT ? " (default)" : ""));
#endif
  fprintf(stderr, "  -dither fs     Use F-S dithering (default)\n");
 8000588:	d0a00617 	ldw	r2,-32744(gp)
 800058c:	10800317 	ldw	r2,12(r2)
 8000590:	100f883a 	mov	r7,r2
 8000594:	01800b44 	movi	r6,45
 8000598:	01400044 	movi	r5,1
 800059c:	01020174 	movhi	r4,2053
 80005a0:	2132b204 	addi	r4,r4,-13624
 80005a4:	80306e80 	call	80306e8 <fwrite>
  fprintf(stderr, "  -dither none   Don't use dithering in quantization\n");
 80005a8:	d0a00617 	ldw	r2,-32744(gp)
 80005ac:	10800317 	ldw	r2,12(r2)
 80005b0:	100f883a 	mov	r7,r2
 80005b4:	01800d44 	movi	r6,53
 80005b8:	01400044 	movi	r5,1
 80005bc:	01020174 	movhi	r4,2053
 80005c0:	2132be04 	addi	r4,r4,-13576
 80005c4:	80306e80 	call	80306e8 <fwrite>
  fprintf(stderr, "  -dither ordered  Use ordered dither (medium speed, quality)\n");
 80005c8:	d0a00617 	ldw	r2,-32744(gp)
 80005cc:	10800317 	ldw	r2,12(r2)
 80005d0:	100f883a 	mov	r7,r2
 80005d4:	01800f84 	movi	r6,62
 80005d8:	01400044 	movi	r5,1
 80005dc:	01020174 	movhi	r4,2053
 80005e0:	2132cc04 	addi	r4,r4,-13520
 80005e4:	80306e80 	call	80306e8 <fwrite>
#ifdef QUANT_2PASS_SUPPORTED
  fprintf(stderr, "  -map FILE      Map to colors used in named image file\n");
 80005e8:	d0a00617 	ldw	r2,-32744(gp)
 80005ec:	10800317 	ldw	r2,12(r2)
 80005f0:	100f883a 	mov	r7,r2
 80005f4:	01800e04 	movi	r6,56
 80005f8:	01400044 	movi	r5,1
 80005fc:	01020174 	movhi	r4,2053
 8000600:	2132dc04 	addi	r4,r4,-13456
 8000604:	80306e80 	call	80306e8 <fwrite>
#endif
  fprintf(stderr, "  -nosmooth      Don't use high-quality upsampling\n");
 8000608:	d0a00617 	ldw	r2,-32744(gp)
 800060c:	10800317 	ldw	r2,12(r2)
 8000610:	100f883a 	mov	r7,r2
 8000614:	01800cc4 	movi	r6,51
 8000618:	01400044 	movi	r5,1
 800061c:	01020174 	movhi	r4,2053
 8000620:	2132eb04 	addi	r4,r4,-13396
 8000624:	80306e80 	call	80306e8 <fwrite>
#ifdef QUANT_1PASS_SUPPORTED
  fprintf(stderr, "  -onepass       Use 1-pass quantization (fast, low quality)\n");
 8000628:	d0a00617 	ldw	r2,-32744(gp)
 800062c:	10800317 	ldw	r2,12(r2)
 8000630:	100f883a 	mov	r7,r2
 8000634:	01800f44 	movi	r6,61
 8000638:	01400044 	movi	r5,1
 800063c:	01020174 	movhi	r4,2053
 8000640:	2132f804 	addi	r4,r4,-13344
 8000644:	80306e80 	call	80306e8 <fwrite>
#endif
  fprintf(stderr, "  -maxmemory N   Maximum memory to use (in kbytes)\n");
 8000648:	d0a00617 	ldw	r2,-32744(gp)
 800064c:	10800317 	ldw	r2,12(r2)
 8000650:	100f883a 	mov	r7,r2
 8000654:	01800cc4 	movi	r6,51
 8000658:	01400044 	movi	r5,1
 800065c:	01020174 	movhi	r4,2053
 8000660:	21330804 	addi	r4,r4,-13280
 8000664:	80306e80 	call	80306e8 <fwrite>
  fprintf(stderr, "  -outfile name  Specify name for output file\n");
 8000668:	d0a00617 	ldw	r2,-32744(gp)
 800066c:	10800317 	ldw	r2,12(r2)
 8000670:	100f883a 	mov	r7,r2
 8000674:	01800b84 	movi	r6,46
 8000678:	01400044 	movi	r5,1
 800067c:	01020174 	movhi	r4,2053
 8000680:	21331504 	addi	r4,r4,-13228
 8000684:	80306e80 	call	80306e8 <fwrite>
  fprintf(stderr, "  -verbose  or  -debug   Emit debug output\n");
 8000688:	d0a00617 	ldw	r2,-32744(gp)
 800068c:	10800317 	ldw	r2,12(r2)
 8000690:	100f883a 	mov	r7,r2
 8000694:	01800ac4 	movi	r6,43
 8000698:	01400044 	movi	r5,1
 800069c:	01020174 	movhi	r4,2053
 80006a0:	21332104 	addi	r4,r4,-13180
 80006a4:	80306e80 	call	80306e8 <fwrite>
  exit(EXIT_FAILURE);
 80006a8:	01000044 	movi	r4,1
 80006ac:	802efa80 	call	802efa8 <exit>

080006b0 <parse_switches>:
 * they have presumably been processed in a previous iteration.
 * (Pass 0 for last_file_arg_seen on the first or only iteration.)
 * for_real is FALSE on the first (dummy) pass; we may skip any expensive
 * processing.
 */
{
 80006b0:	defff404 	addi	sp,sp,-48
 80006b4:	dfc00b15 	stw	ra,44(sp)
 80006b8:	df000a15 	stw	fp,40(sp)
 80006bc:	df000a04 	addi	fp,sp,40
 80006c0:	e13ffc15 	stw	r4,-16(fp)
 80006c4:	e17ffd15 	stw	r5,-12(fp)
 80006c8:	e1bffe15 	stw	r6,-8(fp)
 80006cc:	e1ffff15 	stw	r7,-4(fp)
  int argn;
  char * arg;

  /* Set up default JPEG parameters. */
  requested_fmt = DEFAULT_FMT;	/* set default output file format */
 80006d0:	008000c4 	movi	r2,3
 80006d4:	d0a73515 	stw	r2,-25388(gp)
  outfilename = NULL;
 80006d8:	d0273715 	stw	zero,-25380(gp)
  cinfo->err->trace_level = 0;
 80006dc:	e0bffc17 	ldw	r2,-16(fp)
 80006e0:	10800017 	ldw	r2,0(r2)
 80006e4:	10001a15 	stw	zero,104(r2)

  /* Scan command line options, adjust parameters */

  for (argn = 1; argn < argc; argn++) {
 80006e8:	00800044 	movi	r2,1
 80006ec:	e0bff615 	stw	r2,-40(fp)
 80006f0:	00020c06 	br	8000f24 <parse_switches+0x874>
    arg = argv[argn];
 80006f4:	e0bff617 	ldw	r2,-40(fp)
 80006f8:	1085883a 	add	r2,r2,r2
 80006fc:	1085883a 	add	r2,r2,r2
 8000700:	1007883a 	mov	r3,r2
 8000704:	e0bffe17 	ldw	r2,-8(fp)
 8000708:	10c5883a 	add	r2,r2,r3
 800070c:	10800017 	ldw	r2,0(r2)
 8000710:	e0bff715 	stw	r2,-36(fp)
    if (*arg != '-') {
 8000714:	e0bff717 	ldw	r2,-36(fp)
 8000718:	10800003 	ldbu	r2,0(r2)
 800071c:	10803fcc 	andi	r2,r2,255
 8000720:	1080201c 	xori	r2,r2,128
 8000724:	10bfe004 	addi	r2,r2,-128
 8000728:	10800b60 	cmpeqi	r2,r2,45
 800072c:	1000051e 	bne	r2,zero,8000744 <parse_switches+0x94>
      /* Not a switch, must be a file name argument */
      if (argn <= last_file_arg_seen) {
 8000730:	e0bff617 	ldw	r2,-40(fp)
 8000734:	e0ffff17 	ldw	r3,-4(fp)
 8000738:	1881fe16 	blt	r3,r2,8000f34 <parse_switches+0x884>
	outfilename = NULL;	/* -outfile applies to just one input file */
 800073c:	d0273715 	stw	zero,-25380(gp)
	continue;		/* ignore this name if previously processed */
 8000740:	0001f506 	br	8000f18 <parse_switches+0x868>
      }
      break;			/* else done parsing switches */
    }
    arg++;			/* advance past switch marker character */
 8000744:	e0bff717 	ldw	r2,-36(fp)
 8000748:	10800044 	addi	r2,r2,1
 800074c:	e0bff715 	stw	r2,-36(fp)

    if (keymatch(arg, "bmp", 1)) {
 8000750:	01800044 	movi	r6,1
 8000754:	01420174 	movhi	r5,2053
 8000758:	29732c04 	addi	r5,r5,-13136
 800075c:	e13ff717 	ldw	r4,-36(fp)
 8000760:	800020c0 	call	800020c <keymatch>
 8000764:	10000226 	beq	r2,zero,8000770 <parse_switches+0xc0>
      /* BMP output format. */
      requested_fmt = FMT_BMP;
 8000768:	d0273515 	stw	zero,-25388(gp)
 800076c:	0001ea06 	br	8000f18 <parse_switches+0x868>

    } else if (keymatch(arg, "colors", 1) || keymatch(arg, "colours", 1) ||
 8000770:	01800044 	movi	r6,1
 8000774:	01420174 	movhi	r5,2053
 8000778:	29732d04 	addi	r5,r5,-13132
 800077c:	e13ff717 	ldw	r4,-36(fp)
 8000780:	800020c0 	call	800020c <keymatch>
 8000784:	1000121e 	bne	r2,zero,80007d0 <parse_switches+0x120>
 8000788:	01800044 	movi	r6,1
 800078c:	01420174 	movhi	r5,2053
 8000790:	29732f04 	addi	r5,r5,-13124
 8000794:	e13ff717 	ldw	r4,-36(fp)
 8000798:	800020c0 	call	800020c <keymatch>
 800079c:	10000c1e 	bne	r2,zero,80007d0 <parse_switches+0x120>
	       keymatch(arg, "quantize", 1) || keymatch(arg, "quantise", 1)) {
 80007a0:	01800044 	movi	r6,1
 80007a4:	01420174 	movhi	r5,2053
 80007a8:	29733104 	addi	r5,r5,-13116
 80007ac:	e13ff717 	ldw	r4,-36(fp)
 80007b0:	800020c0 	call	800020c <keymatch>

    if (keymatch(arg, "bmp", 1)) {
      /* BMP output format. */
      requested_fmt = FMT_BMP;

    } else if (keymatch(arg, "colors", 1) || keymatch(arg, "colours", 1) ||
 80007b4:	1000061e 	bne	r2,zero,80007d0 <parse_switches+0x120>
	       keymatch(arg, "quantize", 1) || keymatch(arg, "quantise", 1)) {
 80007b8:	01800044 	movi	r6,1
 80007bc:	01420174 	movhi	r5,2053
 80007c0:	29733404 	addi	r5,r5,-13104
 80007c4:	e13ff717 	ldw	r4,-36(fp)
 80007c8:	800020c0 	call	800020c <keymatch>
 80007cc:	10001e26 	beq	r2,zero,8000848 <parse_switches+0x198>
      /* Do color quantization. */
      int val;

      if (++argn >= argc)	/* advance to next argument */
 80007d0:	e0bff617 	ldw	r2,-40(fp)
 80007d4:	10800044 	addi	r2,r2,1
 80007d8:	e0bff615 	stw	r2,-40(fp)
 80007dc:	e0fff617 	ldw	r3,-40(fp)
 80007e0:	e0bffd17 	ldw	r2,-12(fp)
 80007e4:	18800116 	blt	r3,r2,80007ec <parse_switches+0x13c>
	usage();
 80007e8:	80003780 	call	8000378 <usage>
      if (sscanf(argv[argn], "%d", &val) != 1)
 80007ec:	e0bff617 	ldw	r2,-40(fp)
 80007f0:	1085883a 	add	r2,r2,r2
 80007f4:	1085883a 	add	r2,r2,r2
 80007f8:	1007883a 	mov	r3,r2
 80007fc:	e0bffe17 	ldw	r2,-8(fp)
 8000800:	10c5883a 	add	r2,r2,r3
 8000804:	10800017 	ldw	r2,0(r2)
 8000808:	e0fff904 	addi	r3,fp,-28
 800080c:	180d883a 	mov	r6,r3
 8000810:	01420174 	movhi	r5,2053
 8000814:	29733704 	addi	r5,r5,-13092
 8000818:	1009883a 	mov	r4,r2
 800081c:	8031c700 	call	8031c70 <sscanf>
 8000820:	10800060 	cmpeqi	r2,r2,1
 8000824:	1000011e 	bne	r2,zero,800082c <parse_switches+0x17c>
	usage();
 8000828:	80003780 	call	8000378 <usage>
      cinfo->desired_number_of_colors = val;
 800082c:	e0fff917 	ldw	r3,-28(fp)
 8000830:	e0bffc17 	ldw	r2,-16(fp)
 8000834:	10c01715 	stw	r3,92(r2)
      cinfo->quantize_colors = TRUE;
 8000838:	e0bffc17 	ldw	r2,-16(fp)
 800083c:	00c00044 	movi	r3,1
 8000840:	10c01415 	stw	r3,80(r2)
    if (keymatch(arg, "bmp", 1)) {
      /* BMP output format. */
      requested_fmt = FMT_BMP;

    } else if (keymatch(arg, "colors", 1) || keymatch(arg, "colours", 1) ||
	       keymatch(arg, "quantize", 1) || keymatch(arg, "quantise", 1)) {
 8000844:	0001b406 	br	8000f18 <parse_switches+0x868>
      if (sscanf(argv[argn], "%d", &val) != 1)
	usage();
      cinfo->desired_number_of_colors = val;
      cinfo->quantize_colors = TRUE;

    } else if (keymatch(arg, "dct", 2)) {
 8000848:	01800084 	movi	r6,2
 800084c:	01420174 	movhi	r5,2053
 8000850:	29733804 	addi	r5,r5,-13088
 8000854:	e13ff717 	ldw	r4,-36(fp)
 8000858:	800020c0 	call	800020c <keymatch>
 800085c:	10003b26 	beq	r2,zero,800094c <parse_switches+0x29c>
      /* Select IDCT algorithm. */
      if (++argn >= argc)	/* advance to next argument */
 8000860:	e0bff617 	ldw	r2,-40(fp)
 8000864:	10800044 	addi	r2,r2,1
 8000868:	e0bff615 	stw	r2,-40(fp)
 800086c:	e0fff617 	ldw	r3,-40(fp)
 8000870:	e0bffd17 	ldw	r2,-12(fp)
 8000874:	18800116 	blt	r3,r2,800087c <parse_switches+0x1cc>
	usage();
 8000878:	80003780 	call	8000378 <usage>
      if (keymatch(argv[argn], "int", 1)) {
 800087c:	e0bff617 	ldw	r2,-40(fp)
 8000880:	1085883a 	add	r2,r2,r2
 8000884:	1085883a 	add	r2,r2,r2
 8000888:	1007883a 	mov	r3,r2
 800088c:	e0bffe17 	ldw	r2,-8(fp)
 8000890:	10c5883a 	add	r2,r2,r3
 8000894:	10800017 	ldw	r2,0(r2)
 8000898:	01800044 	movi	r6,1
 800089c:	01420174 	movhi	r5,2053
 80008a0:	29733904 	addi	r5,r5,-13084
 80008a4:	1009883a 	mov	r4,r2
 80008a8:	800020c0 	call	800020c <keymatch>
 80008ac:	10000326 	beq	r2,zero,80008bc <parse_switches+0x20c>
	cinfo->dct_method = JDCT_ISLOW;
 80008b0:	e0bffc17 	ldw	r2,-16(fp)
 80008b4:	10001115 	stw	zero,68(r2)
 80008b8:	00019706 	br	8000f18 <parse_switches+0x868>
      } else if (keymatch(argv[argn], "fast", 2)) {
 80008bc:	e0bff617 	ldw	r2,-40(fp)
 80008c0:	1085883a 	add	r2,r2,r2
 80008c4:	1085883a 	add	r2,r2,r2
 80008c8:	1007883a 	mov	r3,r2
 80008cc:	e0bffe17 	ldw	r2,-8(fp)
 80008d0:	10c5883a 	add	r2,r2,r3
 80008d4:	10800017 	ldw	r2,0(r2)
 80008d8:	01800084 	movi	r6,2
 80008dc:	01420174 	movhi	r5,2053
 80008e0:	29733a04 	addi	r5,r5,-13080
 80008e4:	1009883a 	mov	r4,r2
 80008e8:	800020c0 	call	800020c <keymatch>
 80008ec:	10000426 	beq	r2,zero,8000900 <parse_switches+0x250>
	cinfo->dct_method = JDCT_IFAST;
 80008f0:	e0bffc17 	ldw	r2,-16(fp)
 80008f4:	00c00044 	movi	r3,1
 80008f8:	10c01115 	stw	r3,68(r2)
 80008fc:	00018606 	br	8000f18 <parse_switches+0x868>
      } else if (keymatch(argv[argn], "float", 2)) {
 8000900:	e0bff617 	ldw	r2,-40(fp)
 8000904:	1085883a 	add	r2,r2,r2
 8000908:	1085883a 	add	r2,r2,r2
 800090c:	1007883a 	mov	r3,r2
 8000910:	e0bffe17 	ldw	r2,-8(fp)
 8000914:	10c5883a 	add	r2,r2,r3
 8000918:	10800017 	ldw	r2,0(r2)
 800091c:	01800084 	movi	r6,2
 8000920:	01420174 	movhi	r5,2053
 8000924:	29733c04 	addi	r5,r5,-13072
 8000928:	1009883a 	mov	r4,r2
 800092c:	800020c0 	call	800020c <keymatch>
 8000930:	10000426 	beq	r2,zero,8000944 <parse_switches+0x294>
	cinfo->dct_method = JDCT_FLOAT;
 8000934:	e0bffc17 	ldw	r2,-16(fp)
 8000938:	00c00084 	movi	r3,2
 800093c:	10c01115 	stw	r3,68(r2)
 8000940:	00017506 	br	8000f18 <parse_switches+0x868>
      } else
	usage();
 8000944:	80003780 	call	8000378 <usage>
 8000948:	00017306 	br	8000f18 <parse_switches+0x868>

    } else if (keymatch(arg, "dither", 2)) {
 800094c:	01800084 	movi	r6,2
 8000950:	01420174 	movhi	r5,2053
 8000954:	29733e04 	addi	r5,r5,-13064
 8000958:	e13ff717 	ldw	r4,-36(fp)
 800095c:	800020c0 	call	800020c <keymatch>
 8000960:	10003b26 	beq	r2,zero,8000a50 <parse_switches+0x3a0>
      /* Select dithering algorithm. */
      if (++argn >= argc)	/* advance to next argument */
 8000964:	e0bff617 	ldw	r2,-40(fp)
 8000968:	10800044 	addi	r2,r2,1
 800096c:	e0bff615 	stw	r2,-40(fp)
 8000970:	e0fff617 	ldw	r3,-40(fp)
 8000974:	e0bffd17 	ldw	r2,-12(fp)
 8000978:	18800116 	blt	r3,r2,8000980 <parse_switches+0x2d0>
	usage();
 800097c:	80003780 	call	8000378 <usage>
      if (keymatch(argv[argn], "fs", 2)) {
 8000980:	e0bff617 	ldw	r2,-40(fp)
 8000984:	1085883a 	add	r2,r2,r2
 8000988:	1085883a 	add	r2,r2,r2
 800098c:	1007883a 	mov	r3,r2
 8000990:	e0bffe17 	ldw	r2,-8(fp)
 8000994:	10c5883a 	add	r2,r2,r3
 8000998:	10800017 	ldw	r2,0(r2)
 800099c:	01800084 	movi	r6,2
 80009a0:	01420174 	movhi	r5,2053
 80009a4:	29734004 	addi	r5,r5,-13056
 80009a8:	1009883a 	mov	r4,r2
 80009ac:	800020c0 	call	800020c <keymatch>
 80009b0:	10000426 	beq	r2,zero,80009c4 <parse_switches+0x314>
	cinfo->dither_mode = JDITHER_FS;
 80009b4:	e0bffc17 	ldw	r2,-16(fp)
 80009b8:	00c00084 	movi	r3,2
 80009bc:	10c01515 	stw	r3,84(r2)
 80009c0:	00015506 	br	8000f18 <parse_switches+0x868>
      } else if (keymatch(argv[argn], "none", 2)) {
 80009c4:	e0bff617 	ldw	r2,-40(fp)
 80009c8:	1085883a 	add	r2,r2,r2
 80009cc:	1085883a 	add	r2,r2,r2
 80009d0:	1007883a 	mov	r3,r2
 80009d4:	e0bffe17 	ldw	r2,-8(fp)
 80009d8:	10c5883a 	add	r2,r2,r3
 80009dc:	10800017 	ldw	r2,0(r2)
 80009e0:	01800084 	movi	r6,2
 80009e4:	01420174 	movhi	r5,2053
 80009e8:	29734104 	addi	r5,r5,-13052
 80009ec:	1009883a 	mov	r4,r2
 80009f0:	800020c0 	call	800020c <keymatch>
 80009f4:	10000326 	beq	r2,zero,8000a04 <parse_switches+0x354>
	cinfo->dither_mode = JDITHER_NONE;
 80009f8:	e0bffc17 	ldw	r2,-16(fp)
 80009fc:	10001515 	stw	zero,84(r2)
 8000a00:	00014506 	br	8000f18 <parse_switches+0x868>
      } else if (keymatch(argv[argn], "ordered", 2)) {
 8000a04:	e0bff617 	ldw	r2,-40(fp)
 8000a08:	1085883a 	add	r2,r2,r2
 8000a0c:	1085883a 	add	r2,r2,r2
 8000a10:	1007883a 	mov	r3,r2
 8000a14:	e0bffe17 	ldw	r2,-8(fp)
 8000a18:	10c5883a 	add	r2,r2,r3
 8000a1c:	10800017 	ldw	r2,0(r2)
 8000a20:	01800084 	movi	r6,2
 8000a24:	01420174 	movhi	r5,2053
 8000a28:	29734304 	addi	r5,r5,-13044
 8000a2c:	1009883a 	mov	r4,r2
 8000a30:	800020c0 	call	800020c <keymatch>
 8000a34:	10000426 	beq	r2,zero,8000a48 <parse_switches+0x398>
	cinfo->dither_mode = JDITHER_ORDERED;
 8000a38:	e0bffc17 	ldw	r2,-16(fp)
 8000a3c:	00c00044 	movi	r3,1
 8000a40:	10c01515 	stw	r3,84(r2)
 8000a44:	00013406 	br	8000f18 <parse_switches+0x868>
      } else
	usage();
 8000a48:	80003780 	call	8000378 <usage>
 8000a4c:	00013206 	br	8000f18 <parse_switches+0x868>

    } else if (keymatch(arg, "debug", 1) || keymatch(arg, "verbose", 1)) {
 8000a50:	01800044 	movi	r6,1
 8000a54:	01420174 	movhi	r5,2053
 8000a58:	29734504 	addi	r5,r5,-13036
 8000a5c:	e13ff717 	ldw	r4,-36(fp)
 8000a60:	800020c0 	call	800020c <keymatch>
 8000a64:	1000061e 	bne	r2,zero,8000a80 <parse_switches+0x3d0>
 8000a68:	01800044 	movi	r6,1
 8000a6c:	01420174 	movhi	r5,2053
 8000a70:	29734704 	addi	r5,r5,-13028
 8000a74:	e13ff717 	ldw	r4,-36(fp)
 8000a78:	800020c0 	call	800020c <keymatch>
 8000a7c:	10001426 	beq	r2,zero,8000ad0 <parse_switches+0x420>
      /* Enable debug printouts. */
      /* On first -d, print version identification */
      static boolean printed_version = FALSE;

      if (! printed_version) {
 8000a80:	d0a73817 	ldw	r2,-25376(gp)
 8000a84:	10000c1e 	bne	r2,zero,8000ab8 <parse_switches+0x408>
	fprintf(stderr, "Independent JPEG Group's DJPEG, version %s\n%s\n",
 8000a88:	d0a00617 	ldw	r2,-32744(gp)
 8000a8c:	10800317 	ldw	r2,12(r2)
 8000a90:	01c20174 	movhi	r7,2053
 8000a94:	39f34904 	addi	r7,r7,-13020
 8000a98:	01820174 	movhi	r6,2053
 8000a9c:	31b35204 	addi	r6,r6,-12984
 8000aa0:	01420174 	movhi	r5,2053
 8000aa4:	29735604 	addi	r5,r5,-12968
 8000aa8:	1009883a 	mov	r4,r2
 8000aac:	802f8600 	call	802f860 <fprintf>
		JVERSION, JCOPYRIGHT);
	printed_version = TRUE;
 8000ab0:	00800044 	movi	r2,1
 8000ab4:	d0a73815 	stw	r2,-25376(gp)
      }
      cinfo->err->trace_level++;
 8000ab8:	e0bffc17 	ldw	r2,-16(fp)
 8000abc:	10800017 	ldw	r2,0(r2)
 8000ac0:	10c01a17 	ldw	r3,104(r2)
 8000ac4:	18c00044 	addi	r3,r3,1
 8000ac8:	10c01a15 	stw	r3,104(r2)
      } else if (keymatch(argv[argn], "ordered", 2)) {
	cinfo->dither_mode = JDITHER_ORDERED;
      } else
	usage();

    } else if (keymatch(arg, "debug", 1) || keymatch(arg, "verbose", 1)) {
 8000acc:	00011206 	br	8000f18 <parse_switches+0x868>
		JVERSION, JCOPYRIGHT);
	printed_version = TRUE;
      }
      cinfo->err->trace_level++;

    } else if (keymatch(arg, "fast", 1)) {
 8000ad0:	01800044 	movi	r6,1
 8000ad4:	01420174 	movhi	r5,2053
 8000ad8:	29733a04 	addi	r5,r5,-13080
 8000adc:	e13ff717 	ldw	r4,-36(fp)
 8000ae0:	800020c0 	call	800020c <keymatch>
 8000ae4:	10001126 	beq	r2,zero,8000b2c <parse_switches+0x47c>
      /* Select recommended processing options for quick-and-dirty output. */
      cinfo->two_pass_quantize = FALSE;
 8000ae8:	e0bffc17 	ldw	r2,-16(fp)
 8000aec:	10001615 	stw	zero,88(r2)
      cinfo->dither_mode = JDITHER_ORDERED;
 8000af0:	e0bffc17 	ldw	r2,-16(fp)
 8000af4:	00c00044 	movi	r3,1
 8000af8:	10c01515 	stw	r3,84(r2)
      if (! cinfo->quantize_colors) /* don't override an earlier -colors */
 8000afc:	e0bffc17 	ldw	r2,-16(fp)
 8000b00:	10801417 	ldw	r2,80(r2)
 8000b04:	1000031e 	bne	r2,zero,8000b14 <parse_switches+0x464>
	cinfo->desired_number_of_colors = 216;
 8000b08:	e0bffc17 	ldw	r2,-16(fp)
 8000b0c:	00c03604 	movi	r3,216
 8000b10:	10c01715 	stw	r3,92(r2)
      cinfo->dct_method = JDCT_FASTEST;
 8000b14:	e0bffc17 	ldw	r2,-16(fp)
 8000b18:	00c00044 	movi	r3,1
 8000b1c:	10c01115 	stw	r3,68(r2)
      cinfo->do_fancy_upsampling = FALSE;
 8000b20:	e0bffc17 	ldw	r2,-16(fp)
 8000b24:	10001215 	stw	zero,72(r2)
 8000b28:	0000fb06 	br	8000f18 <parse_switches+0x868>

    } else if (keymatch(arg, "gif", 1)) {
 8000b2c:	01800044 	movi	r6,1
 8000b30:	01420174 	movhi	r5,2053
 8000b34:	29736204 	addi	r5,r5,-12920
 8000b38:	e13ff717 	ldw	r4,-36(fp)
 8000b3c:	800020c0 	call	800020c <keymatch>
 8000b40:	10000326 	beq	r2,zero,8000b50 <parse_switches+0x4a0>
      /* GIF output format. */
      requested_fmt = FMT_GIF;
 8000b44:	00800044 	movi	r2,1
 8000b48:	d0a73515 	stw	r2,-25388(gp)
 8000b4c:	0000f206 	br	8000f18 <parse_switches+0x868>

    } else if (keymatch(arg, "grayscale", 2) || keymatch(arg, "greyscale",2)) {
 8000b50:	01800084 	movi	r6,2
 8000b54:	01420174 	movhi	r5,2053
 8000b58:	29736304 	addi	r5,r5,-12916
 8000b5c:	e13ff717 	ldw	r4,-36(fp)
 8000b60:	800020c0 	call	800020c <keymatch>
 8000b64:	1000061e 	bne	r2,zero,8000b80 <parse_switches+0x4d0>
 8000b68:	01800084 	movi	r6,2
 8000b6c:	01420174 	movhi	r5,2053
 8000b70:	29736604 	addi	r5,r5,-12904
 8000b74:	e13ff717 	ldw	r4,-36(fp)
 8000b78:	800020c0 	call	800020c <keymatch>
 8000b7c:	10000426 	beq	r2,zero,8000b90 <parse_switches+0x4e0>
      /* Force monochrome output. */
      cinfo->out_color_space = JCS_GRAYSCALE;
 8000b80:	e0bffc17 	ldw	r2,-16(fp)
 8000b84:	00c00044 	movi	r3,1
 8000b88:	10c00a15 	stw	r3,40(r2)
 8000b8c:	0000e206 	br	8000f18 <parse_switches+0x868>

    } else if (keymatch(arg, "map", 3)) {
 8000b90:	018000c4 	movi	r6,3
 8000b94:	01420174 	movhi	r5,2053
 8000b98:	29736904 	addi	r5,r5,-12892
 8000b9c:	e13ff717 	ldw	r4,-36(fp)
 8000ba0:	800020c0 	call	800020c <keymatch>
 8000ba4:	10003226 	beq	r2,zero,8000c70 <parse_switches+0x5c0>
      /* Quantize to a color map taken from an input file. */
      if (++argn >= argc)	/* advance to next argument */
 8000ba8:	e0bff617 	ldw	r2,-40(fp)
 8000bac:	10800044 	addi	r2,r2,1
 8000bb0:	e0bff615 	stw	r2,-40(fp)
 8000bb4:	e0fff617 	ldw	r3,-40(fp)
 8000bb8:	e0bffd17 	ldw	r2,-12(fp)
 8000bbc:	18800116 	blt	r3,r2,8000bc4 <parse_switches+0x514>
	usage();
 8000bc0:	80003780 	call	8000378 <usage>
      if (for_real) {		/* too expensive to do twice! */
 8000bc4:	e0800217 	ldw	r2,8(fp)
 8000bc8:	1000d326 	beq	r2,zero,8000f18 <parse_switches+0x868>
#ifdef QUANT_2PASS_SUPPORTED	/* otherwise can't quantize to supplied map */
	FILE * mapfile;

	if ((mapfile = fopen(argv[argn], READ_BINARY)) == NULL) {
 8000bcc:	e0bff617 	ldw	r2,-40(fp)
 8000bd0:	1085883a 	add	r2,r2,r2
 8000bd4:	1085883a 	add	r2,r2,r2
 8000bd8:	1007883a 	mov	r3,r2
 8000bdc:	e0bffe17 	ldw	r2,-8(fp)
 8000be0:	10c5883a 	add	r2,r2,r3
 8000be4:	10800017 	ldw	r2,0(r2)
 8000be8:	01420174 	movhi	r5,2053
 8000bec:	29736a04 	addi	r5,r5,-12888
 8000bf0:	1009883a 	mov	r4,r2
 8000bf4:	802f8200 	call	802f820 <fopen>
 8000bf8:	e0bff815 	stw	r2,-32(fp)
 8000bfc:	e0bff817 	ldw	r2,-32(fp)
 8000c00:	1000121e 	bne	r2,zero,8000c4c <parse_switches+0x59c>
	  fprintf(stderr, "%s: can't open %s\n", progname, argv[argn]);
 8000c04:	d0a00617 	ldw	r2,-32744(gp)
 8000c08:	10c00317 	ldw	r3,12(r2)
 8000c0c:	d1273617 	ldw	r4,-25384(gp)
 8000c10:	e0bff617 	ldw	r2,-40(fp)
 8000c14:	1085883a 	add	r2,r2,r2
 8000c18:	1085883a 	add	r2,r2,r2
 8000c1c:	100b883a 	mov	r5,r2
 8000c20:	e0bffe17 	ldw	r2,-8(fp)
 8000c24:	1145883a 	add	r2,r2,r5
 8000c28:	10800017 	ldw	r2,0(r2)
 8000c2c:	100f883a 	mov	r7,r2
 8000c30:	200d883a 	mov	r6,r4
 8000c34:	01420174 	movhi	r5,2053
 8000c38:	29736b04 	addi	r5,r5,-12884
 8000c3c:	1809883a 	mov	r4,r3
 8000c40:	802f8600 	call	802f860 <fprintf>
	  exit(EXIT_FAILURE);
 8000c44:	01000044 	movi	r4,1
 8000c48:	802efa80 	call	802efa8 <exit>
	}
	read_color_map(cinfo, mapfile);
 8000c4c:	e17ff817 	ldw	r5,-32(fp)
 8000c50:	e13ffc17 	ldw	r4,-16(fp)
 8000c54:	8029da40 	call	8029da4 <read_color_map>
	fclose(mapfile);
 8000c58:	e13ff817 	ldw	r4,-32(fp)
 8000c5c:	802f0d00 	call	802f0d0 <fclose>
	cinfo->quantize_colors = TRUE;
 8000c60:	e0bffc17 	ldw	r2,-16(fp)
 8000c64:	00c00044 	movi	r3,1
 8000c68:	10c01415 	stw	r3,80(r2)
 8000c6c:	0000aa06 	br	8000f18 <parse_switches+0x868>
#else
	ERREXIT(cinfo, JERR_NOT_COMPILED);
#endif
      }

    } else if (keymatch(arg, "maxmemory", 3)) {
 8000c70:	018000c4 	movi	r6,3
 8000c74:	01420174 	movhi	r5,2053
 8000c78:	29737004 	addi	r5,r5,-12864
 8000c7c:	e13ff717 	ldw	r4,-36(fp)
 8000c80:	800020c0 	call	800020c <keymatch>
 8000c84:	10002f26 	beq	r2,zero,8000d44 <parse_switches+0x694>
      /* Maximum memory in Kb (or Mb with 'm'). */
      long lval;
      char ch = 'x';
 8000c88:	00801e04 	movi	r2,120
 8000c8c:	e0bffb05 	stb	r2,-20(fp)

      if (++argn >= argc)	/* advance to next argument */
 8000c90:	e0bff617 	ldw	r2,-40(fp)
 8000c94:	10800044 	addi	r2,r2,1
 8000c98:	e0bff615 	stw	r2,-40(fp)
 8000c9c:	e0fff617 	ldw	r3,-40(fp)
 8000ca0:	e0bffd17 	ldw	r2,-12(fp)
 8000ca4:	18800116 	blt	r3,r2,8000cac <parse_switches+0x5fc>
	usage();
 8000ca8:	80003780 	call	8000378 <usage>
      if (sscanf(argv[argn], "%ld%c", &lval, &ch) < 1)
 8000cac:	e0bff617 	ldw	r2,-40(fp)
 8000cb0:	1085883a 	add	r2,r2,r2
 8000cb4:	1085883a 	add	r2,r2,r2
 8000cb8:	1007883a 	mov	r3,r2
 8000cbc:	e0bffe17 	ldw	r2,-8(fp)
 8000cc0:	10c5883a 	add	r2,r2,r3
 8000cc4:	10800017 	ldw	r2,0(r2)
 8000cc8:	e13ffb04 	addi	r4,fp,-20
 8000ccc:	e0fffa04 	addi	r3,fp,-24
 8000cd0:	200f883a 	mov	r7,r4
 8000cd4:	180d883a 	mov	r6,r3
 8000cd8:	01420174 	movhi	r5,2053
 8000cdc:	29737304 	addi	r5,r5,-12852
 8000ce0:	1009883a 	mov	r4,r2
 8000ce4:	8031c700 	call	8031c70 <sscanf>
 8000ce8:	00800116 	blt	zero,r2,8000cf0 <parse_switches+0x640>
	usage();
 8000cec:	80003780 	call	8000378 <usage>
      if (ch == 'm' || ch == 'M')
 8000cf0:	e0bffb03 	ldbu	r2,-20(fp)
 8000cf4:	10803fcc 	andi	r2,r2,255
 8000cf8:	1080201c 	xori	r2,r2,128
 8000cfc:	10bfe004 	addi	r2,r2,-128
 8000d00:	10801b60 	cmpeqi	r2,r2,109
 8000d04:	1000061e 	bne	r2,zero,8000d20 <parse_switches+0x670>
 8000d08:	e0bffb03 	ldbu	r2,-20(fp)
 8000d0c:	10803fcc 	andi	r2,r2,255
 8000d10:	1080201c 	xori	r2,r2,128
 8000d14:	10bfe004 	addi	r2,r2,-128
 8000d18:	10801358 	cmpnei	r2,r2,77
 8000d1c:	1000031e 	bne	r2,zero,8000d2c <parse_switches+0x67c>
	lval *= 1000L;
 8000d20:	e0bffa17 	ldw	r2,-24(fp)
 8000d24:	1080fa24 	muli	r2,r2,1000
 8000d28:	e0bffa15 	stw	r2,-24(fp)
      cinfo->mem->max_memory_to_use = lval * 1000L;
 8000d2c:	e0bffc17 	ldw	r2,-16(fp)
 8000d30:	10800117 	ldw	r2,4(r2)
 8000d34:	e0fffa17 	ldw	r3,-24(fp)
 8000d38:	18c0fa24 	muli	r3,r3,1000
 8000d3c:	10c00b15 	stw	r3,44(r2)
 8000d40:	00007506 	br	8000f18 <parse_switches+0x868>

    } else if (keymatch(arg, "nosmooth", 3)) {
 8000d44:	018000c4 	movi	r6,3
 8000d48:	01420174 	movhi	r5,2053
 8000d4c:	29737504 	addi	r5,r5,-12844
 8000d50:	e13ff717 	ldw	r4,-36(fp)
 8000d54:	800020c0 	call	800020c <keymatch>
 8000d58:	10000326 	beq	r2,zero,8000d68 <parse_switches+0x6b8>
      /* Suppress fancy upsampling */
      cinfo->do_fancy_upsampling = FALSE;
 8000d5c:	e0bffc17 	ldw	r2,-16(fp)
 8000d60:	10001215 	stw	zero,72(r2)
 8000d64:	00006c06 	br	8000f18 <parse_switches+0x868>

    } else if (keymatch(arg, "onepass", 3)) {
 8000d68:	018000c4 	movi	r6,3
 8000d6c:	01420174 	movhi	r5,2053
 8000d70:	29737804 	addi	r5,r5,-12832
 8000d74:	e13ff717 	ldw	r4,-36(fp)
 8000d78:	800020c0 	call	800020c <keymatch>
 8000d7c:	10000326 	beq	r2,zero,8000d8c <parse_switches+0x6dc>
      /* Use fast one-pass quantization. */
      cinfo->two_pass_quantize = FALSE;
 8000d80:	e0bffc17 	ldw	r2,-16(fp)
 8000d84:	10001615 	stw	zero,88(r2)
 8000d88:	00006306 	br	8000f18 <parse_switches+0x868>

    } else if (keymatch(arg, "os2", 3)) {
 8000d8c:	018000c4 	movi	r6,3
 8000d90:	01420174 	movhi	r5,2053
 8000d94:	29737a04 	addi	r5,r5,-12824
 8000d98:	e13ff717 	ldw	r4,-36(fp)
 8000d9c:	800020c0 	call	800020c <keymatch>
 8000da0:	10000326 	beq	r2,zero,8000db0 <parse_switches+0x700>
      /* BMP output format (OS/2 flavor). */
      requested_fmt = FMT_OS2;
 8000da4:	00800084 	movi	r2,2
 8000da8:	d0a73515 	stw	r2,-25388(gp)
 8000dac:	00005a06 	br	8000f18 <parse_switches+0x868>

    } else if (keymatch(arg, "outfile", 4)) {
 8000db0:	01800104 	movi	r6,4
 8000db4:	01420174 	movhi	r5,2053
 8000db8:	29737b04 	addi	r5,r5,-12820
 8000dbc:	e13ff717 	ldw	r4,-36(fp)
 8000dc0:	800020c0 	call	800020c <keymatch>
 8000dc4:	10001026 	beq	r2,zero,8000e08 <parse_switches+0x758>
      /* Set output file name. */
      if (++argn >= argc)	/* advance to next argument */
 8000dc8:	e0bff617 	ldw	r2,-40(fp)
 8000dcc:	10800044 	addi	r2,r2,1
 8000dd0:	e0bff615 	stw	r2,-40(fp)
 8000dd4:	e0fff617 	ldw	r3,-40(fp)
 8000dd8:	e0bffd17 	ldw	r2,-12(fp)
 8000ddc:	18800116 	blt	r3,r2,8000de4 <parse_switches+0x734>
	usage();
 8000de0:	80003780 	call	8000378 <usage>
      outfilename = argv[argn];	/* save it away for later use */
 8000de4:	e0bff617 	ldw	r2,-40(fp)
 8000de8:	1085883a 	add	r2,r2,r2
 8000dec:	1085883a 	add	r2,r2,r2
 8000df0:	1007883a 	mov	r3,r2
 8000df4:	e0bffe17 	ldw	r2,-8(fp)
 8000df8:	10c5883a 	add	r2,r2,r3
 8000dfc:	10800017 	ldw	r2,0(r2)
 8000e00:	d0a73715 	stw	r2,-25380(gp)
 8000e04:	00004406 	br	8000f18 <parse_switches+0x868>

    } else if (keymatch(arg, "pnm", 1) || keymatch(arg, "ppm", 1)) {
 8000e08:	01800044 	movi	r6,1
 8000e0c:	01420174 	movhi	r5,2053
 8000e10:	29737d04 	addi	r5,r5,-12812
 8000e14:	e13ff717 	ldw	r4,-36(fp)
 8000e18:	800020c0 	call	800020c <keymatch>
 8000e1c:	1000061e 	bne	r2,zero,8000e38 <parse_switches+0x788>
 8000e20:	01800044 	movi	r6,1
 8000e24:	01420174 	movhi	r5,2053
 8000e28:	29737e04 	addi	r5,r5,-12808
 8000e2c:	e13ff717 	ldw	r4,-36(fp)
 8000e30:	800020c0 	call	800020c <keymatch>
 8000e34:	10000326 	beq	r2,zero,8000e44 <parse_switches+0x794>
      /* PPM/PGM output format. */
      requested_fmt = FMT_PPM;
 8000e38:	008000c4 	movi	r2,3
 8000e3c:	d0a73515 	stw	r2,-25388(gp)
 8000e40:	00003506 	br	8000f18 <parse_switches+0x868>

    } else if (keymatch(arg, "rle", 1)) {
 8000e44:	01800044 	movi	r6,1
 8000e48:	01420174 	movhi	r5,2053
 8000e4c:	29737f04 	addi	r5,r5,-12804
 8000e50:	e13ff717 	ldw	r4,-36(fp)
 8000e54:	800020c0 	call	800020c <keymatch>
 8000e58:	10000326 	beq	r2,zero,8000e68 <parse_switches+0x7b8>
      /* RLE output format. */
      requested_fmt = FMT_RLE;
 8000e5c:	00800104 	movi	r2,4
 8000e60:	d0a73515 	stw	r2,-25388(gp)
 8000e64:	00002c06 	br	8000f18 <parse_switches+0x868>

    } else if (keymatch(arg, "scale", 1)) {
 8000e68:	01800044 	movi	r6,1
 8000e6c:	01420174 	movhi	r5,2053
 8000e70:	29738004 	addi	r5,r5,-12800
 8000e74:	e13ff717 	ldw	r4,-36(fp)
 8000e78:	800020c0 	call	800020c <keymatch>
 8000e7c:	10001c26 	beq	r2,zero,8000ef0 <parse_switches+0x840>
      /* Scale the output image by a fraction M/N. */
      if (++argn >= argc)	/* advance to next argument */
 8000e80:	e0bff617 	ldw	r2,-40(fp)
 8000e84:	10800044 	addi	r2,r2,1
 8000e88:	e0bff615 	stw	r2,-40(fp)
 8000e8c:	e0fff617 	ldw	r3,-40(fp)
 8000e90:	e0bffd17 	ldw	r2,-12(fp)
 8000e94:	18800116 	blt	r3,r2,8000e9c <parse_switches+0x7ec>
	usage();
 8000e98:	80003780 	call	8000378 <usage>
      if (sscanf(argv[argn], "%d/%d",
 8000e9c:	e0bff617 	ldw	r2,-40(fp)
 8000ea0:	1085883a 	add	r2,r2,r2
 8000ea4:	1085883a 	add	r2,r2,r2
 8000ea8:	1007883a 	mov	r3,r2
 8000eac:	e0bffe17 	ldw	r2,-8(fp)
 8000eb0:	10c5883a 	add	r2,r2,r3
 8000eb4:	10c00017 	ldw	r3,0(r2)
 8000eb8:	e0bffc17 	ldw	r2,-16(fp)
 8000ebc:	11000b04 	addi	r4,r2,44
 8000ec0:	e0bffc17 	ldw	r2,-16(fp)
 8000ec4:	10800c04 	addi	r2,r2,48
 8000ec8:	100f883a 	mov	r7,r2
 8000ecc:	200d883a 	mov	r6,r4
 8000ed0:	01420174 	movhi	r5,2053
 8000ed4:	29738204 	addi	r5,r5,-12792
 8000ed8:	1809883a 	mov	r4,r3
 8000edc:	8031c700 	call	8031c70 <sscanf>
 8000ee0:	108000a0 	cmpeqi	r2,r2,2
 8000ee4:	10000c1e 	bne	r2,zero,8000f18 <parse_switches+0x868>
		 &cinfo->scale_num, &cinfo->scale_denom) != 2)
	usage();
 8000ee8:	80003780 	call	8000378 <usage>
 8000eec:	00000a06 	br	8000f18 <parse_switches+0x868>

    } else if (keymatch(arg, "targa", 1)) {
 8000ef0:	01800044 	movi	r6,1
 8000ef4:	01420174 	movhi	r5,2053
 8000ef8:	29738404 	addi	r5,r5,-12784
 8000efc:	e13ff717 	ldw	r4,-36(fp)
 8000f00:	800020c0 	call	800020c <keymatch>
 8000f04:	10000326 	beq	r2,zero,8000f14 <parse_switches+0x864>
      /* Targa output format. */
      requested_fmt = FMT_TARGA;
 8000f08:	00800144 	movi	r2,5
 8000f0c:	d0a73515 	stw	r2,-25388(gp)
 8000f10:	00000106 	br	8000f18 <parse_switches+0x868>

    } else {
      usage();			/* bogus switch */
 8000f14:	80003780 	call	8000378 <usage>
  outfilename = NULL;
  cinfo->err->trace_level = 0;

  /* Scan command line options, adjust parameters */

  for (argn = 1; argn < argc; argn++) {
 8000f18:	e0bff617 	ldw	r2,-40(fp)
 8000f1c:	10800044 	addi	r2,r2,1
 8000f20:	e0bff615 	stw	r2,-40(fp)
 8000f24:	e0fff617 	ldw	r3,-40(fp)
 8000f28:	e0bffd17 	ldw	r2,-12(fp)
 8000f2c:	18bdf116 	blt	r3,r2,80006f4 <parse_switches+0x44>
 8000f30:	00000106 	br	8000f38 <parse_switches+0x888>
      /* Not a switch, must be a file name argument */
      if (argn <= last_file_arg_seen) {
	outfilename = NULL;	/* -outfile applies to just one input file */
	continue;		/* ignore this name if previously processed */
      }
      break;			/* else done parsing switches */
 8000f34:	0001883a 	nop
    } else {
      usage();			/* bogus switch */
    }
  }

  return argn;			/* return index of next arg (file name) */
 8000f38:	e0bff617 	ldw	r2,-40(fp)
}
 8000f3c:	e037883a 	mov	sp,fp
 8000f40:	dfc00117 	ldw	ra,4(sp)
 8000f44:	df000017 	ldw	fp,0(sp)
 8000f48:	dec00204 	addi	sp,sp,8
 8000f4c:	f800283a 	ret

08000f50 <jpeg_getc>:
 */

LOCAL(unsigned int)
jpeg_getc (j_decompress_ptr cinfo)
/* Read next byte */
{
 8000f50:	defffc04 	addi	sp,sp,-16
 8000f54:	dfc00315 	stw	ra,12(sp)
 8000f58:	df000215 	stw	fp,8(sp)
 8000f5c:	df000204 	addi	fp,sp,8
 8000f60:	e13fff15 	stw	r4,-4(fp)
  struct jpeg_source_mgr * datasrc = cinfo->src;
 8000f64:	e0bfff17 	ldw	r2,-4(fp)
 8000f68:	10800517 	ldw	r2,20(r2)
 8000f6c:	e0bffe15 	stw	r2,-8(fp)

  if (datasrc->bytes_in_buffer == 0) {
 8000f70:	e0bffe17 	ldw	r2,-8(fp)
 8000f74:	10800117 	ldw	r2,4(r2)
 8000f78:	10000e1e 	bne	r2,zero,8000fb4 <jpeg_getc+0x64>
    if (! (*datasrc->fill_input_buffer) (cinfo))
 8000f7c:	e0bffe17 	ldw	r2,-8(fp)
 8000f80:	10800317 	ldw	r2,12(r2)
 8000f84:	e13fff17 	ldw	r4,-4(fp)
 8000f88:	103ee83a 	callr	r2
 8000f8c:	1000091e 	bne	r2,zero,8000fb4 <jpeg_getc+0x64>
      ERREXIT(cinfo, JERR_CANT_SUSPEND);
 8000f90:	e0bfff17 	ldw	r2,-4(fp)
 8000f94:	10800017 	ldw	r2,0(r2)
 8000f98:	00c00584 	movi	r3,22
 8000f9c:	10c00515 	stw	r3,20(r2)
 8000fa0:	e0bfff17 	ldw	r2,-4(fp)
 8000fa4:	10800017 	ldw	r2,0(r2)
 8000fa8:	10800017 	ldw	r2,0(r2)
 8000fac:	e13fff17 	ldw	r4,-4(fp)
 8000fb0:	103ee83a 	callr	r2
  }
  datasrc->bytes_in_buffer--;
 8000fb4:	e0bffe17 	ldw	r2,-8(fp)
 8000fb8:	10800117 	ldw	r2,4(r2)
 8000fbc:	10ffffc4 	addi	r3,r2,-1
 8000fc0:	e0bffe17 	ldw	r2,-8(fp)
 8000fc4:	10c00115 	stw	r3,4(r2)
  return GETJOCTET(*datasrc->next_input_byte++);
 8000fc8:	e0bffe17 	ldw	r2,-8(fp)
 8000fcc:	10800017 	ldw	r2,0(r2)
 8000fd0:	11000044 	addi	r4,r2,1
 8000fd4:	e0fffe17 	ldw	r3,-8(fp)
 8000fd8:	19000015 	stw	r4,0(r3)
 8000fdc:	10800003 	ldbu	r2,0(r2)
 8000fe0:	10803fcc 	andi	r2,r2,255
}
 8000fe4:	e037883a 	mov	sp,fp
 8000fe8:	dfc00117 	ldw	ra,4(sp)
 8000fec:	df000017 	ldw	fp,0(sp)
 8000ff0:	dec00204 	addi	sp,sp,8
 8000ff4:	f800283a 	ret

08000ff8 <COM_handler>:


METHODDEF(boolean)
COM_handler (j_decompress_ptr cinfo)
{
 8000ff8:	defff904 	addi	sp,sp,-28
 8000ffc:	dfc00615 	stw	ra,24(sp)
 8001000:	df000515 	stw	fp,20(sp)
 8001004:	df000504 	addi	fp,sp,20
 8001008:	e13fff15 	stw	r4,-4(fp)
  boolean traceit = (cinfo->err->trace_level >= 1);
 800100c:	e0bfff17 	ldw	r2,-4(fp)
 8001010:	10800017 	ldw	r2,0(r2)
 8001014:	10801a17 	ldw	r2,104(r2)
 8001018:	0084803a 	cmplt	r2,zero,r2
 800101c:	10803fcc 	andi	r2,r2,255
 8001020:	e0bffd15 	stw	r2,-12(fp)
  INT32 length;
  unsigned int ch;
  unsigned int lastch = 0;
 8001024:	e03ffc15 	stw	zero,-16(fp)

  length = jpeg_getc(cinfo) << 8;
 8001028:	e13fff17 	ldw	r4,-4(fp)
 800102c:	8000f500 	call	8000f50 <jpeg_getc>
 8001030:	1004923a 	slli	r2,r2,8
 8001034:	e0bffb15 	stw	r2,-20(fp)
  length += jpeg_getc(cinfo);
 8001038:	e13fff17 	ldw	r4,-4(fp)
 800103c:	8000f500 	call	8000f50 <jpeg_getc>
 8001040:	1007883a 	mov	r3,r2
 8001044:	e0bffb17 	ldw	r2,-20(fp)
 8001048:	1885883a 	add	r2,r3,r2
 800104c:	e0bffb15 	stw	r2,-20(fp)
  length -= 2;			/* discount the length word itself */
 8001050:	e0bffb17 	ldw	r2,-20(fp)
 8001054:	10bfff84 	addi	r2,r2,-2
 8001058:	e0bffb15 	stw	r2,-20(fp)

  if (traceit)
 800105c:	e0bffd17 	ldw	r2,-12(fp)
 8001060:	10004826 	beq	r2,zero,8001184 <COM_handler+0x18c>
    fprintf(stderr, "Comment, length %ld:\n", (long) length);
 8001064:	d0a00617 	ldw	r2,-32744(gp)
 8001068:	10800317 	ldw	r2,12(r2)
 800106c:	e1bffb17 	ldw	r6,-20(fp)
 8001070:	01420174 	movhi	r5,2053
 8001074:	29738604 	addi	r5,r5,-12776
 8001078:	1009883a 	mov	r4,r2
 800107c:	802f8600 	call	802f860 <fprintf>

  while (--length >= 0) {
 8001080:	00004006 	br	8001184 <COM_handler+0x18c>
    ch = jpeg_getc(cinfo);
 8001084:	e13fff17 	ldw	r4,-4(fp)
 8001088:	8000f500 	call	8000f50 <jpeg_getc>
 800108c:	e0bffe15 	stw	r2,-8(fp)
    if (traceit) {
 8001090:	e0bffd17 	ldw	r2,-12(fp)
 8001094:	10003b26 	beq	r2,zero,8001184 <COM_handler+0x18c>
      /* Emit the character in a readable form.
       * Nonprintables are converted to \nnn form,
       * while \ is converted to \\.
       * Newlines in CR, CR/LF, or LF form will be printed as one newline.
       */
      if (ch == '\r') {
 8001098:	e0bffe17 	ldw	r2,-8(fp)
 800109c:	10800358 	cmpnei	r2,r2,13
 80010a0:	1000061e 	bne	r2,zero,80010bc <COM_handler+0xc4>
	fprintf(stderr, "\n");
 80010a4:	d0a00617 	ldw	r2,-32744(gp)
 80010a8:	10800317 	ldw	r2,12(r2)
 80010ac:	100b883a 	mov	r5,r2
 80010b0:	01000284 	movi	r4,10
 80010b4:	802f8c80 	call	802f8c8 <fputc>
 80010b8:	00003006 	br	800117c <COM_handler+0x184>
      } else if (ch == '\n') {
 80010bc:	e0bffe17 	ldw	r2,-8(fp)
 80010c0:	10800298 	cmpnei	r2,r2,10
 80010c4:	1000091e 	bne	r2,zero,80010ec <COM_handler+0xf4>
	if (lastch != '\r')
 80010c8:	e0bffc17 	ldw	r2,-16(fp)
 80010cc:	10800360 	cmpeqi	r2,r2,13
 80010d0:	10002a1e 	bne	r2,zero,800117c <COM_handler+0x184>
	  fprintf(stderr, "\n");
 80010d4:	d0a00617 	ldw	r2,-32744(gp)
 80010d8:	10800317 	ldw	r2,12(r2)
 80010dc:	100b883a 	mov	r5,r2
 80010e0:	01000284 	movi	r4,10
 80010e4:	802f8c80 	call	802f8c8 <fputc>
 80010e8:	00002406 	br	800117c <COM_handler+0x184>
      } else if (ch == '\\') {
 80010ec:	e0bffe17 	ldw	r2,-8(fp)
 80010f0:	10801718 	cmpnei	r2,r2,92
 80010f4:	1000091e 	bne	r2,zero,800111c <COM_handler+0x124>
	fprintf(stderr, "\\\\");
 80010f8:	d0a00617 	ldw	r2,-32744(gp)
 80010fc:	10800317 	ldw	r2,12(r2)
 8001100:	100f883a 	mov	r7,r2
 8001104:	01800084 	movi	r6,2
 8001108:	01400044 	movi	r5,1
 800110c:	01020174 	movhi	r4,2053
 8001110:	21338c04 	addi	r4,r4,-12752
 8001114:	80306e80 	call	80306e8 <fwrite>
 8001118:	00001806 	br	800117c <COM_handler+0x184>
      } else if (isprint(ch)) {
 800111c:	d0e00417 	ldw	r3,-32752(gp)
 8001120:	e0bffe17 	ldw	r2,-8(fp)
 8001124:	10800044 	addi	r2,r2,1
 8001128:	1885883a 	add	r2,r3,r2
 800112c:	10800003 	ldbu	r2,0(r2)
 8001130:	10803fcc 	andi	r2,r2,255
 8001134:	1080201c 	xori	r2,r2,128
 8001138:	10bfe004 	addi	r2,r2,-128
 800113c:	108025cc 	andi	r2,r2,151
 8001140:	10000726 	beq	r2,zero,8001160 <COM_handler+0x168>
	putc(ch, stderr);
 8001144:	e0fffe17 	ldw	r3,-8(fp)
 8001148:	d0a00617 	ldw	r2,-32744(gp)
 800114c:	10800317 	ldw	r2,12(r2)
 8001150:	100b883a 	mov	r5,r2
 8001154:	1809883a 	mov	r4,r3
 8001158:	80317440 	call	8031744 <putc>
 800115c:	00000706 	br	800117c <COM_handler+0x184>
      } else {
	fprintf(stderr, "\\%03o", ch);
 8001160:	d0a00617 	ldw	r2,-32744(gp)
 8001164:	10800317 	ldw	r2,12(r2)
 8001168:	e1bffe17 	ldw	r6,-8(fp)
 800116c:	01420174 	movhi	r5,2053
 8001170:	29738d04 	addi	r5,r5,-12748
 8001174:	1009883a 	mov	r4,r2
 8001178:	802f8600 	call	802f860 <fprintf>
      }
      lastch = ch;
 800117c:	e0bffe17 	ldw	r2,-8(fp)
 8001180:	e0bffc15 	stw	r2,-16(fp)
  length -= 2;			/* discount the length word itself */

  if (traceit)
    fprintf(stderr, "Comment, length %ld:\n", (long) length);

  while (--length >= 0) {
 8001184:	e0bffb17 	ldw	r2,-20(fp)
 8001188:	10bfffc4 	addi	r2,r2,-1
 800118c:	e0bffb15 	stw	r2,-20(fp)
 8001190:	e0bffb17 	ldw	r2,-20(fp)
 8001194:	103fbb0e 	bge	r2,zero,8001084 <COM_handler+0x8c>
      }
      lastch = ch;
    }
  }

  if (traceit)
 8001198:	e0bffd17 	ldw	r2,-12(fp)
 800119c:	10000526 	beq	r2,zero,80011b4 <COM_handler+0x1bc>
    fprintf(stderr, "\n");
 80011a0:	d0a00617 	ldw	r2,-32744(gp)
 80011a4:	10800317 	ldw	r2,12(r2)
 80011a8:	100b883a 	mov	r5,r2
 80011ac:	01000284 	movi	r4,10
 80011b0:	802f8c80 	call	802f8c8 <fputc>

  return TRUE;
 80011b4:	00800044 	movi	r2,1
}
 80011b8:	e037883a 	mov	sp,fp
 80011bc:	dfc00117 	ldw	ra,4(sp)
 80011c0:	df000017 	ldw	fp,0(sp)
 80011c4:	dec00204 	addi	sp,sp,8
 80011c8:	f800283a 	ret

080011cc <capture_cmd_args>:
/*
 * Capture command line args
 * ECE695R: hard-coded input parameters to the program
 */
void capture_cmd_args(int *argc_ptr, char ***argv_ptr)
{
 80011cc:	defffb04 	addi	sp,sp,-20
 80011d0:	dfc00415 	stw	ra,16(sp)
 80011d4:	df000315 	stw	fp,12(sp)
 80011d8:	dc000215 	stw	r16,8(sp)
 80011dc:	df000304 	addi	fp,sp,12
 80011e0:	e13ffd15 	stw	r4,-12(fp)
 80011e4:	e17ffe15 	stw	r5,-8(fp)
    *argc_ptr= 4;
 80011e8:	e0bffd17 	ldw	r2,-12(fp)
 80011ec:	00c00104 	movi	r3,4
 80011f0:	10c00015 	stw	r3,0(r2)

    *argv_ptr = malloc(5*sizeof(char *));
 80011f4:	01000504 	movi	r4,20
 80011f8:	8030b340 	call	8030b34 <malloc>
 80011fc:	1007883a 	mov	r3,r2
 8001200:	e0bffe17 	ldw	r2,-8(fp)
 8001204:	10c00015 	stw	r3,0(r2)
    (*argv_ptr)[0] = strdup("djpeg");
 8001208:	e0bffe17 	ldw	r2,-8(fp)
 800120c:	14000017 	ldw	r16,0(r2)
 8001210:	01020174 	movhi	r4,2053
 8001214:	21338f04 	addi	r4,r4,-12740
 8001218:	8031ea00 	call	8031ea0 <strdup>
 800121c:	80800015 	stw	r2,0(r16)
    (*argv_ptr)[1] = strdup("-outfile");
 8001220:	e0bffe17 	ldw	r2,-8(fp)
 8001224:	10800017 	ldw	r2,0(r2)
 8001228:	14000104 	addi	r16,r2,4
 800122c:	01020174 	movhi	r4,2053
 8001230:	21339104 	addi	r4,r4,-12732
 8001234:	8031ea00 	call	8031ea0 <strdup>
 8001238:	80800015 	stw	r2,0(r16)
    (*argv_ptr)[3] = malloc(100);
 800123c:	e0bffe17 	ldw	r2,-8(fp)
 8001240:	10800017 	ldw	r2,0(r2)
 8001244:	14000304 	addi	r16,r2,12
 8001248:	01001904 	movi	r4,100
 800124c:	8030b340 	call	8030b34 <malloc>
 8001250:	80800015 	stw	r2,0(r16)
    sprintf((*argv_ptr)[3], INPUT_IMAGE); // change the input filename if you'd like to
 8001254:	e0bffe17 	ldw	r2,-8(fp)
 8001258:	10800017 	ldw	r2,0(r2)
 800125c:	10800304 	addi	r2,r2,12
 8001260:	10c00017 	ldw	r3,0(r2)
 8001264:	00820174 	movhi	r2,2053
 8001268:	10b39404 	addi	r2,r2,-12720
 800126c:	1009883a 	mov	r4,r2
 8001270:	00800544 	movi	r2,21
 8001274:	100d883a 	mov	r6,r2
 8001278:	200b883a 	mov	r5,r4
 800127c:	1809883a 	mov	r4,r3
 8001280:	80313680 	call	8031368 <memcpy>
    (*argv_ptr)[2] = NULL ;
 8001284:	e0bffe17 	ldw	r2,-8(fp)
 8001288:	10800017 	ldw	r2,0(r2)
 800128c:	10800204 	addi	r2,r2,8
 8001290:	10000015 	stw	zero,0(r2)
    (*argv_ptr)[4] = NULL;
 8001294:	e0bffe17 	ldw	r2,-8(fp)
 8001298:	10800017 	ldw	r2,0(r2)
 800129c:	10800404 	addi	r2,r2,16
 80012a0:	10000015 	stw	zero,0(r2)
    
    return;
 80012a4:	0001883a 	nop
}
 80012a8:	e6ffff04 	addi	sp,fp,-4
 80012ac:	dfc00217 	ldw	ra,8(sp)
 80012b0:	df000117 	ldw	fp,4(sp)
 80012b4:	dc000017 	ldw	r16,0(sp)
 80012b8:	dec00304 	addi	sp,sp,12
 80012bc:	f800283a 	ret

080012c0 <main>:
 * The main program.
 */

int
main (int argc, char **argv)
{
 80012c0:	deff5c04 	addi	sp,sp,-656
 80012c4:	dfc0a315 	stw	ra,652(sp)
 80012c8:	df00a215 	stw	fp,648(sp)
 80012cc:	dc00a115 	stw	r16,644(sp)
 80012d0:	df00a204 	addi	fp,sp,648
 80012d4:	e13ffd15 	stw	r4,-12(fp)
 80012d8:	e17ffe15 	stw	r5,-8(fp)
  struct jpeg_error_mgr jerr;
#ifdef PROGRESS_REPORT
  struct cdjpeg_progress_mgr progress;
#endif
  int file_index;
  djpeg_dest_ptr dest_mgr = NULL;
 80012dc:	e03f6415 	stw	zero,-624(fp)
  /* On Mac, fetch a command line. */
#ifdef USE_CCOMMAND
  argc = ccommand(&argv);
#endif

  capture_cmd_args(&argc, &argv);
 80012e0:	e0fffe04 	addi	r3,fp,-8
 80012e4:	e0bffd04 	addi	r2,fp,-12
 80012e8:	180b883a 	mov	r5,r3
 80012ec:	1009883a 	mov	r4,r2
 80012f0:	80011cc0 	call	80011cc <capture_cmd_args>

  printf("Input file name = %s\n", argv[3]);
 80012f4:	e0bffe17 	ldw	r2,-8(fp)
 80012f8:	10800304 	addi	r2,r2,12
 80012fc:	10800017 	ldw	r2,0(r2)
 8001300:	100b883a 	mov	r5,r2
 8001304:	01020174 	movhi	r4,2053
 8001308:	21339a04 	addi	r4,r4,-12696
 800130c:	80316680 	call	8031668 <printf>
   
  progname = argv[0];
 8001310:	e0bffe17 	ldw	r2,-8(fp)
 8001314:	10800017 	ldw	r2,0(r2)
 8001318:	d0a73615 	stw	r2,-25384(gp)
  if (progname == NULL || progname[0] == 0)
 800131c:	d0a73617 	ldw	r2,-25384(gp)
 8001320:	10000626 	beq	r2,zero,800133c <main+0x7c>
 8001324:	d0a73617 	ldw	r2,-25384(gp)
 8001328:	10800003 	ldbu	r2,0(r2)
 800132c:	10803fcc 	andi	r2,r2,255
 8001330:	1080201c 	xori	r2,r2,128
 8001334:	10bfe004 	addi	r2,r2,-128
 8001338:	1000031e 	bne	r2,zero,8001348 <main+0x88>
    progname = "djpeg";		/* in case C library doesn't provide it */
 800133c:	00820174 	movhi	r2,2053
 8001340:	10b38f04 	addi	r2,r2,-12740
 8001344:	d0a73615 	stw	r2,-25384(gp)

  /* Initialize the JPEG decompression object with default error handling. */
  cinfo.err = jpeg_std_error(&jerr);
 8001348:	e0bfdc04 	addi	r2,fp,-144
 800134c:	1009883a 	mov	r4,r2
 8001350:	801f0d40 	call	801f0d4 <jpeg_std_error>
 8001354:	e0bf6a15 	stw	r2,-600(fp)
  jpeg_create_decompress(&cinfo);
 8001358:	e0bf6a04 	addi	r2,fp,-600
 800135c:	01807204 	movi	r6,456
 8001360:	01400f44 	movi	r5,61
 8001364:	1009883a 	mov	r4,r2
 8001368:	800efa80 	call	800efa8 <jpeg_CreateDecompress>
  /* Add some application-specific error messages (from cderror.h) */
  jerr.addon_message_table = cdjpeg_message_table;
 800136c:	00820174 	movhi	r2,2053
 8001370:	10b1c404 	addi	r2,r2,-14576
 8001374:	e0bffa15 	stw	r2,-24(fp)
  jerr.first_addon_message = JMSG_FIRSTADDONCODE;
 8001378:	0080fa04 	movi	r2,1000
 800137c:	e0bffb15 	stw	r2,-20(fp)
  jerr.last_addon_message = JMSG_LASTADDONCODE;
 8001380:	008104c4 	movi	r2,1043
 8001384:	e0bffc15 	stw	r2,-16(fp)
  /* Insert custom COM marker processor. */
  jpeg_set_marker_processor(&cinfo, JPEG_COM, COM_handler);
 8001388:	e0bf6a04 	addi	r2,fp,-600
 800138c:	01820034 	movhi	r6,2048
 8001390:	3183fe04 	addi	r6,r6,4088
 8001394:	01403f84 	movi	r5,254
 8001398:	1009883a 	mov	r4,r2
 800139c:	800f1e80 	call	800f1e8 <jpeg_set_marker_processor>
   * the input file.
   * (Exception: tracing level set here controls verbosity for COM markers
   * found during jpeg_read_header...)
   */

  file_index = parse_switches(&cinfo, argc, argv, 0, FALSE);
 80013a0:	e0fffd17 	ldw	r3,-12(fp)
 80013a4:	e13ffe17 	ldw	r4,-8(fp)
 80013a8:	e0bf6a04 	addi	r2,fp,-600
 80013ac:	d8000015 	stw	zero,0(sp)
 80013b0:	000f883a 	mov	r7,zero
 80013b4:	200d883a 	mov	r6,r4
 80013b8:	180b883a 	mov	r5,r3
 80013bc:	1009883a 	mov	r4,r2
 80013c0:	80006b00 	call	80006b0 <parse_switches>
 80013c4:	e0bf6615 	stw	r2,-616(fp)
      usage();
    }
  }
#else
  /* Unix style: expect zero or one file name */
  if (file_index < argc-1) {
 80013c8:	e0bffd17 	ldw	r2,-12(fp)
 80013cc:	10bfffc4 	addi	r2,r2,-1
 80013d0:	e0ff6617 	ldw	r3,-616(fp)
 80013d4:	1880090e 	bge	r3,r2,80013fc <main+0x13c>
    fprintf(stderr, "%s: only one input file\n", progname);
 80013d8:	d0a00617 	ldw	r2,-32744(gp)
 80013dc:	10800317 	ldw	r2,12(r2)
 80013e0:	d0e73617 	ldw	r3,-25384(gp)
 80013e4:	180d883a 	mov	r6,r3
 80013e8:	01420174 	movhi	r5,2053
 80013ec:	2973a004 	addi	r5,r5,-12672
 80013f0:	1009883a 	mov	r4,r2
 80013f4:	802f8600 	call	802f860 <fprintf>
    usage();
 80013f8:	80003780 	call	8000378 <usage>
  }
#endif /* TWO_FILE_COMMANDLINE */

  /* Open the input file. */
  if (file_index < argc) {
 80013fc:	e0bffd17 	ldw	r2,-12(fp)
 8001400:	e0ff6617 	ldw	r3,-616(fp)
 8001404:	18801d0e 	bge	r3,r2,800147c <main+0x1bc>
    if ((input_file = fopen(argv[file_index], READ_BINARY)) == NULL) {
 8001408:	e0fffe17 	ldw	r3,-8(fp)
 800140c:	e0bf6617 	ldw	r2,-616(fp)
 8001410:	1085883a 	add	r2,r2,r2
 8001414:	1085883a 	add	r2,r2,r2
 8001418:	1885883a 	add	r2,r3,r2
 800141c:	10800017 	ldw	r2,0(r2)
 8001420:	01420174 	movhi	r5,2053
 8001424:	29736a04 	addi	r5,r5,-12888
 8001428:	1009883a 	mov	r4,r2
 800142c:	802f8200 	call	802f820 <fopen>
 8001430:	e0bf6515 	stw	r2,-620(fp)
 8001434:	e0bf6517 	ldw	r2,-620(fp)
 8001438:	1000121e 	bne	r2,zero,8001484 <main+0x1c4>
      fprintf(stderr, "%s: can't open %s\n", progname, argv[file_index]);
 800143c:	d0a00617 	ldw	r2,-32744(gp)
 8001440:	11000317 	ldw	r4,12(r2)
 8001444:	d1673617 	ldw	r5,-25384(gp)
 8001448:	e0fffe17 	ldw	r3,-8(fp)
 800144c:	e0bf6617 	ldw	r2,-616(fp)
 8001450:	1085883a 	add	r2,r2,r2
 8001454:	1085883a 	add	r2,r2,r2
 8001458:	1885883a 	add	r2,r3,r2
 800145c:	10800017 	ldw	r2,0(r2)
 8001460:	100f883a 	mov	r7,r2
 8001464:	280d883a 	mov	r6,r5
 8001468:	01420174 	movhi	r5,2053
 800146c:	29736b04 	addi	r5,r5,-12884
 8001470:	802f8600 	call	802f860 <fprintf>
      exit(EXIT_FAILURE);
 8001474:	01000044 	movi	r4,1
 8001478:	802efa80 	call	802efa8 <exit>
    }
  } else {
    /* default input file is stdin */
    input_file = read_stdin();
 800147c:	80003200 	call	8000320 <read_stdin>
 8001480:	e0bf6515 	stw	r2,-620(fp)
#ifdef PROGRESS_REPORT
  start_progress_monitor((j_common_ptr) &cinfo, &progress);
#endif

  /* Specify data source for decompression */
  jpeg_stdio_src(&cinfo, input_file);
 8001484:	e0bf6a04 	addi	r2,fp,-600
 8001488:	e17f6517 	ldw	r5,-620(fp)
 800148c:	1009883a 	mov	r4,r2
 8001490:	80108080 	call	8010808 <jpeg_stdio_src>

  /* Read file header, set default decompression parameters */
  (void) jpeg_read_header(&cinfo, TRUE);
 8001494:	e0bf6a04 	addi	r2,fp,-600
 8001498:	01400044 	movi	r5,1
 800149c:	1009883a 	mov	r4,r2
 80014a0:	800f6680 	call	800f668 <jpeg_read_header>

  /* Adjust default decompression parameters by re-parsing the options */
  file_index = parse_switches(&cinfo, argc, argv, 0, TRUE);
 80014a4:	e13ffd17 	ldw	r4,-12(fp)
 80014a8:	e17ffe17 	ldw	r5,-8(fp)
 80014ac:	e0ff6a04 	addi	r3,fp,-600
 80014b0:	00800044 	movi	r2,1
 80014b4:	d8800015 	stw	r2,0(sp)
 80014b8:	000f883a 	mov	r7,zero
 80014bc:	280d883a 	mov	r6,r5
 80014c0:	200b883a 	mov	r5,r4
 80014c4:	1809883a 	mov	r4,r3
 80014c8:	80006b00 	call	80006b0 <parse_switches>
 80014cc:	e0bf6615 	stw	r2,-616(fp)

  /* Initialize the output module now to let it override any crucial
   * option settings (for instance, GIF wants to force color quantization).
   */
  switch (requested_fmt) {
 80014d0:	d0a73517 	ldw	r2,-25388(gp)
 80014d4:	10c001a8 	cmpgeui	r3,r2,6
 80014d8:	1800271e 	bne	r3,zero,8001578 <main+0x2b8>
 80014dc:	100690ba 	slli	r3,r2,2
 80014e0:	00820034 	movhi	r2,2048
 80014e4:	10853d04 	addi	r2,r2,5364
 80014e8:	1885883a 	add	r2,r3,r2
 80014ec:	10800017 	ldw	r2,0(r2)
 80014f0:	1000683a 	jmp	r2
 80014f4:	0800150c 	andi	zero,at,84
 80014f8:	0800153c 	xorhi	zero,at,84
 80014fc:	08001524 	muli	zero,at,84
 8001500:	08001550 	cmplti	zero,at,85
 8001504:	08001578 	rdprs	zero,at,85
 8001508:	08001564 	muli	zero,at,85
#ifdef BMP_SUPPORTED
  case FMT_BMP:
    dest_mgr = jinit_write_bmp(&cinfo, FALSE);
 800150c:	e0bf6a04 	addi	r2,fp,-600
 8001510:	000b883a 	mov	r5,zero
 8001514:	1009883a 	mov	r4,r2
 8001518:	802ab380 	call	802ab38 <jinit_write_bmp>
 800151c:	e0bf6415 	stw	r2,-624(fp)
    break;
 8001520:	00001e06 	br	800159c <main+0x2dc>
  case FMT_OS2:
    dest_mgr = jinit_write_bmp(&cinfo, TRUE);
 8001524:	e0bf6a04 	addi	r2,fp,-600
 8001528:	01400044 	movi	r5,1
 800152c:	1009883a 	mov	r4,r2
 8001530:	802ab380 	call	802ab38 <jinit_write_bmp>
 8001534:	e0bf6415 	stw	r2,-624(fp)
    break;
 8001538:	00001806 	br	800159c <main+0x2dc>
#endif
#ifdef GIF_SUPPORTED
  case FMT_GIF:
    dest_mgr = jinit_write_gif(&cinfo);
 800153c:	e0bf6a04 	addi	r2,fp,-600
 8001540:	1009883a 	mov	r4,r2
 8001544:	802bb700 	call	802bb70 <jinit_write_gif>
 8001548:	e0bf6415 	stw	r2,-624(fp)
    break;
 800154c:	00001306 	br	800159c <main+0x2dc>
#endif
#ifdef PPM_SUPPORTED
  case FMT_PPM:
    dest_mgr = jinit_write_ppm(&cinfo);
 8001550:	e0bf6a04 	addi	r2,fp,-600
 8001554:	1009883a 	mov	r4,r2
 8001558:	802c2f80 	call	802c2f8 <jinit_write_ppm>
 800155c:	e0bf6415 	stw	r2,-624(fp)
    break;
 8001560:	00000e06 	br	800159c <main+0x2dc>
    dest_mgr = jinit_write_rle(&cinfo);
    break;
#endif
#ifdef TARGA_SUPPORTED
  case FMT_TARGA:
    dest_mgr = jinit_write_targa(&cinfo);
 8001564:	e0bf6a04 	addi	r2,fp,-600
 8001568:	1009883a 	mov	r4,r2
 800156c:	802cb040 	call	802cb04 <jinit_write_targa>
 8001570:	e0bf6415 	stw	r2,-624(fp)
    break;
 8001574:	00000906 	br	800159c <main+0x2dc>
#endif
  default:
    ERREXIT(&cinfo, JERR_UNSUPPORTED_FORMAT);
 8001578:	e0bf6a17 	ldw	r2,-600(fp)
 800157c:	00c10484 	movi	r3,1042
 8001580:	10c00515 	stw	r3,20(r2)
 8001584:	e0bf6a17 	ldw	r2,-600(fp)
 8001588:	10800017 	ldw	r2,0(r2)
 800158c:	e0ff6a04 	addi	r3,fp,-600
 8001590:	1809883a 	mov	r4,r3
 8001594:	103ee83a 	callr	r2
    break;
 8001598:	0001883a 	nop
  }
  dest_mgr->output_file = output_file;
 800159c:	e0bf6417 	ldw	r2,-624(fp)
 80015a0:	e0ff6717 	ldw	r3,-612(fp)
 80015a4:	10c00315 	stw	r3,12(r2)

  // ECE695R: clear the VGA monitor screen
  alt_up_pixel_buffer_dma_dev *pb = alt_up_pixel_buffer_dma_open_dev("/dev/video_pixel_buffer_dma_0");
 80015a8:	01020174 	movhi	r4,2053
 80015ac:	2133a704 	addi	r4,r4,-12644
 80015b0:	80496b80 	call	80496b8 <alt_up_pixel_buffer_dma_open_dev>
 80015b4:	e0bf6815 	stw	r2,-608(fp)
  alt_up_pixel_buffer_dma_clear_screen(pb, 0);
 80015b8:	000b883a 	mov	r5,zero
 80015bc:	e13f6817 	ldw	r4,-608(fp)
 80015c0:	80499780 	call	8049978 <alt_up_pixel_buffer_dma_clear_screen>

#if USE_PERFORMANCE_COUNTER // ECE695R: time measurement
  PERF_RESET(alt_get_performance_counter_base());  
 80015c4:	8048ad40 	call	8048ad4 <alt_get_performance_counter_base>
 80015c8:	1007883a 	mov	r3,r2
 80015cc:	00800044 	movi	r2,1
 80015d0:	18800035 	stwio	r2,0(r3)
  PERF_START_MEASURING(alt_get_performance_counter_base());
 80015d4:	8048ad40 	call	8048ad4 <alt_get_performance_counter_base>
 80015d8:	10800104 	addi	r2,r2,4
 80015dc:	0007883a 	mov	r3,zero
 80015e0:	10c00035 	stwio	r3,0(r2)
#endif

  /* Start decompressor */
  (void) jpeg_start_decompress(&cinfo);
 80015e4:	e0bf6a04 	addi	r2,fp,-600
 80015e8:	1009883a 	mov	r4,r2
 80015ec:	800fb440 	call	800fb44 <jpeg_start_decompress>
#if 0 // ECE695R: no output file
  /* Write output file header */
  (*dest_mgr->start_output) (&cinfo, dest_mgr);
#endif
   
  printf("Starting decompression....\n");
 80015f0:	01020174 	movhi	r4,2053
 80015f4:	2133af04 	addi	r4,r4,-12612
 80015f8:	80318cc0 	call	80318cc <puts>
   
  /* Process data */
  while (cinfo.output_scanline < cinfo.output_height) {
 80015fc:	00002106 	br	8001684 <main+0x3c4>
#if USE_PERFORMANCE_COUNTER
    PERF_BEGIN(alt_get_performance_counter_base(), 1); // ECE695R: time measurement
 8001600:	8048ad40 	call	8048ad4 <alt_get_performance_counter_base>
 8001604:	10800504 	addi	r2,r2,20
 8001608:	0007883a 	mov	r3,zero
 800160c:	10c00035 	stwio	r3,0(r2)
#endif
    num_scanlines = jpeg_read_scanlines(&cinfo, dest_mgr->buffer,
 8001610:	e0bf6417 	ldw	r2,-624(fp)
 8001614:	10c00417 	ldw	r3,16(r2)
 8001618:	e0bf6417 	ldw	r2,-624(fp)
 800161c:	11000517 	ldw	r4,20(r2)
 8001620:	e0bf6a04 	addi	r2,fp,-600
 8001624:	200d883a 	mov	r6,r4
 8001628:	180b883a 	mov	r5,r3
 800162c:	1009883a 	mov	r4,r2
 8001630:	800fe700 	call	800fe70 <jpeg_read_scanlines>
 8001634:	e0bf6915 	stw	r2,-604(fp)
					dest_mgr->buffer_height);
#if USE_PERFORMANCE_COUNTER
    PERF_END(alt_get_performance_counter_base(), 1); // ECE695R: time measurement
 8001638:	8048ad40 	call	8048ad4 <alt_get_performance_counter_base>
 800163c:	10800404 	addi	r2,r2,16
 8001640:	0007883a 	mov	r3,zero
 8001644:	10c00035 	stwio	r3,0(r2)
#endif
    
#if USE_PERFORMANCE_COUNTER
    PERF_BEGIN(alt_get_performance_counter_base(), 2); // ECE695R: time measurement
 8001648:	8048ad40 	call	8048ad4 <alt_get_performance_counter_base>
 800164c:	10800904 	addi	r2,r2,36
 8001650:	0007883a 	mov	r3,zero
 8001654:	10c00035 	stwio	r3,0(r2)
#endif
    (*dest_mgr->put_pixel_rows) (&cinfo, dest_mgr, num_scanlines);
 8001658:	e0bf6417 	ldw	r2,-624(fp)
 800165c:	10800117 	ldw	r2,4(r2)
 8001660:	e0ff6a04 	addi	r3,fp,-600
 8001664:	e1bf6917 	ldw	r6,-604(fp)
 8001668:	e17f6417 	ldw	r5,-624(fp)
 800166c:	1809883a 	mov	r4,r3
 8001670:	103ee83a 	callr	r2
#if USE_PERFORMANCE_COUNTER
    PERF_END(alt_get_performance_counter_base(), 2); // ECE695R: time measurement
 8001674:	8048ad40 	call	8048ad4 <alt_get_performance_counter_base>
 8001678:	10800804 	addi	r2,r2,32
 800167c:	0007883a 	mov	r3,zero
 8001680:	10c00035 	stwio	r3,0(r2)
#endif
   
  printf("Starting decompression....\n");
   
  /* Process data */
  while (cinfo.output_scanline < cinfo.output_height) {
 8001684:	e0ff8c17 	ldw	r3,-464(fp)
 8001688:	e0bf8617 	ldw	r2,-488(fp)
 800168c:	18bfdc36 	bltu	r3,r2,8001600 <main+0x340>
#if USE_PERFORMANCE_COUNTER
    PERF_END(alt_get_performance_counter_base(), 2); // ECE695R: time measurement
#endif
  }
   
  printf("Decompression complete!\n");
 8001690:	01020174 	movhi	r4,2053
 8001694:	2133b604 	addi	r4,r4,-12584
 8001698:	80318cc0 	call	80318cc <puts>

  /* Finish decompression and release memory.
   * I must do it in this order because output module has allocated memory
   * of lifespan JPOOL_IMAGE; it needs to finish before releasing memory.
   */
  (*dest_mgr->finish_output) (&cinfo, dest_mgr);
 800169c:	e0bf6417 	ldw	r2,-624(fp)
 80016a0:	10800217 	ldw	r2,8(r2)
 80016a4:	e0ff6a04 	addi	r3,fp,-600
 80016a8:	e17f6417 	ldw	r5,-624(fp)
 80016ac:	1809883a 	mov	r4,r3
 80016b0:	103ee83a 	callr	r2
  (void) jpeg_finish_decompress(&cinfo);
 80016b4:	e0bf6a04 	addi	r2,fp,-600
 80016b8:	1009883a 	mov	r4,r2
 80016bc:	800f9d80 	call	800f9d8 <jpeg_finish_decompress>
  jpeg_destroy_decompress(&cinfo);
 80016c0:	e0bf6a04 	addi	r2,fp,-600
 80016c4:	1009883a 	mov	r4,r2
 80016c8:	800f1800 	call	800f180 <jpeg_destroy_decompress>

  /* Close files, if we opened them */
  if (input_file != stdin)
 80016cc:	d0a00617 	ldw	r2,-32744(gp)
 80016d0:	10c00117 	ldw	r3,4(r2)
 80016d4:	e0bf6517 	ldw	r2,-620(fp)
 80016d8:	18800226 	beq	r3,r2,80016e4 <main+0x424>
    fclose(input_file);
 80016dc:	e13f6517 	ldw	r4,-620(fp)
 80016e0:	802f0d00 	call	802f0d0 <fclose>
  if (output_file != stdout)
    fclose(output_file);
#endif

#if USE_PERFORMANCE_COUNTER
  PERF_STOP_MEASURING(alt_get_performance_counter_base()); // ECE695R: time measurement
 80016e4:	8048ad40 	call	8048ad4 <alt_get_performance_counter_base>
 80016e8:	0007883a 	mov	r3,zero
 80016ec:	10c00035 	stwio	r3,0(r2)
  perf_print_formatted_report(alt_get_performance_counter_base(), alt_get_cpu_freq(), 7, "decompression", "display", "H2V2 Sampling", "Color convert", "DCT_FAST","Decode_mcu","put_pixel_rows");
 80016f0:	8048ad40 	call	8048ad4 <alt_get_performance_counter_base>
 80016f4:	1021883a 	mov	r16,r2
 80016f8:	8048af80 	call	8048af8 <alt_get_cpu_freq>
 80016fc:	1007883a 	mov	r3,r2
 8001700:	00820174 	movhi	r2,2053
 8001704:	10b3c004 	addi	r2,r2,-12544
 8001708:	d8800515 	stw	r2,20(sp)
 800170c:	00820174 	movhi	r2,2053
 8001710:	10b3c404 	addi	r2,r2,-12528
 8001714:	d8800415 	stw	r2,16(sp)
 8001718:	00820174 	movhi	r2,2053
 800171c:	10b3c704 	addi	r2,r2,-12516
 8001720:	d8800315 	stw	r2,12(sp)
 8001724:	00820174 	movhi	r2,2053
 8001728:	10b3ca04 	addi	r2,r2,-12504
 800172c:	d8800215 	stw	r2,8(sp)
 8001730:	00820174 	movhi	r2,2053
 8001734:	10b3ce04 	addi	r2,r2,-12488
 8001738:	d8800115 	stw	r2,4(sp)
 800173c:	00820174 	movhi	r2,2053
 8001740:	10b3d204 	addi	r2,r2,-12472
 8001744:	d8800015 	stw	r2,0(sp)
 8001748:	01c20174 	movhi	r7,2053
 800174c:	39f3bc04 	addi	r7,r7,-12560
 8001750:	018001c4 	movi	r6,7
 8001754:	180b883a 	mov	r5,r3
 8001758:	8009883a 	mov	r4,r16
 800175c:	804a56c0 	call	804a56c <perf_print_formatted_report>
#endif

  fflush(stdout);
 8001760:	d0a00617 	ldw	r2,-32744(gp)
 8001764:	10800217 	ldw	r2,8(r2)
 8001768:	1009883a 	mov	r4,r2
 800176c:	802f35c0 	call	802f35c <fflush>
#ifdef PROGRESS_REPORT
  end_progress_monitor((j_common_ptr) &cinfo);
#endif

  /* All done. */
  exit(jerr.num_warnings ? EXIT_WARNING : EXIT_SUCCESS);
 8001770:	e0bff717 	ldw	r2,-36(fp)
 8001774:	10000226 	beq	r2,zero,8001780 <main+0x4c0>
 8001778:	00800084 	movi	r2,2
 800177c:	00000106 	br	8001784 <main+0x4c4>
 8001780:	0005883a 	mov	r2,zero
 8001784:	1009883a 	mov	r4,r2
 8001788:	802efa80 	call	802efa8 <exit>

0800178c <jpeg_CreateCompress>:
 * The error manager must already be set up (in case memory manager fails).
 */

GLOBAL(void)
jpeg_CreateCompress (j_compress_ptr cinfo, int version, size_t structsize)
{
 800178c:	defff904 	addi	sp,sp,-28
 8001790:	dfc00615 	stw	ra,24(sp)
 8001794:	df000515 	stw	fp,20(sp)
 8001798:	df000504 	addi	fp,sp,20
 800179c:	e13ffd15 	stw	r4,-12(fp)
 80017a0:	e17ffe15 	stw	r5,-8(fp)
 80017a4:	e1bfff15 	stw	r6,-4(fp)
  int i;

  /* Guard against version mismatches between library and caller. */
  cinfo->mem = NULL;		/* so jpeg_destroy knows mem mgr not called */
 80017a8:	e0bffd17 	ldw	r2,-12(fp)
 80017ac:	10000115 	stw	zero,4(r2)
  if (version != JPEG_LIB_VERSION)
 80017b0:	e0bffe17 	ldw	r2,-8(fp)
 80017b4:	10800f60 	cmpeqi	r2,r2,61
 80017b8:	1000111e 	bne	r2,zero,8001800 <jpeg_CreateCompress+0x74>
    ERREXIT2(cinfo, JERR_BAD_LIB_VERSION, JPEG_LIB_VERSION, version);
 80017bc:	e0bffd17 	ldw	r2,-12(fp)
 80017c0:	10800017 	ldw	r2,0(r2)
 80017c4:	00c00284 	movi	r3,10
 80017c8:	10c00515 	stw	r3,20(r2)
 80017cc:	e0bffd17 	ldw	r2,-12(fp)
 80017d0:	10800017 	ldw	r2,0(r2)
 80017d4:	00c00f44 	movi	r3,61
 80017d8:	10c00615 	stw	r3,24(r2)
 80017dc:	e0bffd17 	ldw	r2,-12(fp)
 80017e0:	10800017 	ldw	r2,0(r2)
 80017e4:	e0fffe17 	ldw	r3,-8(fp)
 80017e8:	10c00715 	stw	r3,28(r2)
 80017ec:	e0bffd17 	ldw	r2,-12(fp)
 80017f0:	10800017 	ldw	r2,0(r2)
 80017f4:	10800017 	ldw	r2,0(r2)
 80017f8:	e13ffd17 	ldw	r4,-12(fp)
 80017fc:	103ee83a 	callr	r2
  if (structsize != SIZEOF(struct jpeg_compress_struct))
 8001800:	e0bfff17 	ldw	r2,-4(fp)
 8001804:	10805a20 	cmpeqi	r2,r2,360
 8001808:	1000111e 	bne	r2,zero,8001850 <jpeg_CreateCompress+0xc4>
    ERREXIT2(cinfo, JERR_BAD_STRUCT_SIZE, 
 800180c:	e0bffd17 	ldw	r2,-12(fp)
 8001810:	10800017 	ldw	r2,0(r2)
 8001814:	00c004c4 	movi	r3,19
 8001818:	10c00515 	stw	r3,20(r2)
 800181c:	e0bffd17 	ldw	r2,-12(fp)
 8001820:	10800017 	ldw	r2,0(r2)
 8001824:	00c05a04 	movi	r3,360
 8001828:	10c00615 	stw	r3,24(r2)
 800182c:	e0bffd17 	ldw	r2,-12(fp)
 8001830:	10800017 	ldw	r2,0(r2)
 8001834:	e0ffff17 	ldw	r3,-4(fp)
 8001838:	10c00715 	stw	r3,28(r2)
 800183c:	e0bffd17 	ldw	r2,-12(fp)
 8001840:	10800017 	ldw	r2,0(r2)
 8001844:	10800017 	ldw	r2,0(r2)
 8001848:	e13ffd17 	ldw	r4,-12(fp)
 800184c:	103ee83a 	callr	r2

  /* For debugging purposes, zero the whole master structure.
   * But error manager pointer is already there, so save and restore it.
   */
  {
    struct jpeg_error_mgr * err = cinfo->err;
 8001850:	e0bffd17 	ldw	r2,-12(fp)
 8001854:	10800017 	ldw	r2,0(r2)
 8001858:	e0bffc15 	stw	r2,-16(fp)
    MEMZERO(cinfo, SIZEOF(struct jpeg_compress_struct));
 800185c:	01805a04 	movi	r6,360
 8001860:	000b883a 	mov	r5,zero
 8001864:	e13ffd17 	ldw	r4,-12(fp)
 8001868:	80314b00 	call	80314b0 <memset>
    cinfo->err = err;
 800186c:	e0bffd17 	ldw	r2,-12(fp)
 8001870:	e0fffc17 	ldw	r3,-16(fp)
 8001874:	10c00015 	stw	r3,0(r2)
  }
  cinfo->is_decompressor = FALSE;
 8001878:	e0bffd17 	ldw	r2,-12(fp)
 800187c:	10000315 	stw	zero,12(r2)

  /* Initialize a memory manager instance for this object */
  jinit_memory_mgr((j_common_ptr) cinfo);
 8001880:	e13ffd17 	ldw	r4,-12(fp)
 8001884:	8024f300 	call	8024f30 <jinit_memory_mgr>

  /* Zero out pointers to permanent structures. */
  cinfo->progress = NULL;
 8001888:	e0bffd17 	ldw	r2,-12(fp)
 800188c:	10000215 	stw	zero,8(r2)
  cinfo->dest = NULL;
 8001890:	e0bffd17 	ldw	r2,-12(fp)
 8001894:	10000515 	stw	zero,20(r2)

  cinfo->comp_info = NULL;
 8001898:	e0bffd17 	ldw	r2,-12(fp)
 800189c:	10000f15 	stw	zero,60(r2)

  for (i = 0; i < NUM_QUANT_TBLS; i++)
 80018a0:	e03ffb15 	stw	zero,-20(fp)
 80018a4:	00000a06 	br	80018d0 <jpeg_CreateCompress+0x144>
    cinfo->quant_tbl_ptrs[i] = NULL;
 80018a8:	e0fffd17 	ldw	r3,-12(fp)
 80018ac:	e0bffb17 	ldw	r2,-20(fp)
 80018b0:	10800404 	addi	r2,r2,16
 80018b4:	1085883a 	add	r2,r2,r2
 80018b8:	1085883a 	add	r2,r2,r2
 80018bc:	1885883a 	add	r2,r3,r2
 80018c0:	10000015 	stw	zero,0(r2)
  cinfo->progress = NULL;
  cinfo->dest = NULL;

  cinfo->comp_info = NULL;

  for (i = 0; i < NUM_QUANT_TBLS; i++)
 80018c4:	e0bffb17 	ldw	r2,-20(fp)
 80018c8:	10800044 	addi	r2,r2,1
 80018cc:	e0bffb15 	stw	r2,-20(fp)
 80018d0:	e0bffb17 	ldw	r2,-20(fp)
 80018d4:	10800110 	cmplti	r2,r2,4
 80018d8:	103ff31e 	bne	r2,zero,80018a8 <jpeg_CreateCompress+0x11c>
    cinfo->quant_tbl_ptrs[i] = NULL;

  for (i = 0; i < NUM_HUFF_TBLS; i++) {
 80018dc:	e03ffb15 	stw	zero,-20(fp)
 80018e0:	00001106 	br	8001928 <jpeg_CreateCompress+0x19c>
    cinfo->dc_huff_tbl_ptrs[i] = NULL;
 80018e4:	e0fffd17 	ldw	r3,-12(fp)
 80018e8:	e0bffb17 	ldw	r2,-20(fp)
 80018ec:	10800504 	addi	r2,r2,20
 80018f0:	1085883a 	add	r2,r2,r2
 80018f4:	1085883a 	add	r2,r2,r2
 80018f8:	1885883a 	add	r2,r3,r2
 80018fc:	10000015 	stw	zero,0(r2)
    cinfo->ac_huff_tbl_ptrs[i] = NULL;
 8001900:	e0fffd17 	ldw	r3,-12(fp)
 8001904:	e0bffb17 	ldw	r2,-20(fp)
 8001908:	10800604 	addi	r2,r2,24
 800190c:	1085883a 	add	r2,r2,r2
 8001910:	1085883a 	add	r2,r2,r2
 8001914:	1885883a 	add	r2,r3,r2
 8001918:	10000015 	stw	zero,0(r2)
  cinfo->comp_info = NULL;

  for (i = 0; i < NUM_QUANT_TBLS; i++)
    cinfo->quant_tbl_ptrs[i] = NULL;

  for (i = 0; i < NUM_HUFF_TBLS; i++) {
 800191c:	e0bffb17 	ldw	r2,-20(fp)
 8001920:	10800044 	addi	r2,r2,1
 8001924:	e0bffb15 	stw	r2,-20(fp)
 8001928:	e0bffb17 	ldw	r2,-20(fp)
 800192c:	10800110 	cmplti	r2,r2,4
 8001930:	103fec1e 	bne	r2,zero,80018e4 <jpeg_CreateCompress+0x158>
    cinfo->dc_huff_tbl_ptrs[i] = NULL;
    cinfo->ac_huff_tbl_ptrs[i] = NULL;
  }

  cinfo->input_gamma = 1.0;	/* in case application forgets */
 8001934:	e0bffd17 	ldw	r2,-12(fp)
 8001938:	10000a15 	stw	zero,40(r2)
 800193c:	00cffc34 	movhi	r3,16368
 8001940:	10c00b15 	stw	r3,44(r2)

  /* OK, I'm ready */
  cinfo->global_state = CSTATE_START;
 8001944:	e0bffd17 	ldw	r2,-12(fp)
 8001948:	00c01904 	movi	r3,100
 800194c:	10c00415 	stw	r3,16(r2)
}
 8001950:	0001883a 	nop
 8001954:	e037883a 	mov	sp,fp
 8001958:	dfc00117 	ldw	ra,4(sp)
 800195c:	df000017 	ldw	fp,0(sp)
 8001960:	dec00204 	addi	sp,sp,8
 8001964:	f800283a 	ret

08001968 <jpeg_destroy_compress>:
 * Destruction of a JPEG compression object
 */

GLOBAL(void)
jpeg_destroy_compress (j_compress_ptr cinfo)
{
 8001968:	defffd04 	addi	sp,sp,-12
 800196c:	dfc00215 	stw	ra,8(sp)
 8001970:	df000115 	stw	fp,4(sp)
 8001974:	df000104 	addi	fp,sp,4
 8001978:	e13fff15 	stw	r4,-4(fp)
  jpeg_destroy((j_common_ptr) cinfo); /* use common routine */
 800197c:	e13fff17 	ldw	r4,-4(fp)
 8001980:	800987c0 	call	800987c <jpeg_destroy>
}
 8001984:	0001883a 	nop
 8001988:	e037883a 	mov	sp,fp
 800198c:	dfc00117 	ldw	ra,4(sp)
 8001990:	df000017 	ldw	fp,0(sp)
 8001994:	dec00204 	addi	sp,sp,8
 8001998:	f800283a 	ret

0800199c <jpeg_abort_compress>:
 * but don't destroy the object itself.
 */

GLOBAL(void)
jpeg_abort_compress (j_compress_ptr cinfo)
{
 800199c:	defffd04 	addi	sp,sp,-12
 80019a0:	dfc00215 	stw	ra,8(sp)
 80019a4:	df000115 	stw	fp,4(sp)
 80019a8:	df000104 	addi	fp,sp,4
 80019ac:	e13fff15 	stw	r4,-4(fp)
  jpeg_abort((j_common_ptr) cinfo); /* use common routine */
 80019b0:	e13fff17 	ldw	r4,-4(fp)
 80019b4:	80097f80 	call	80097f8 <jpeg_abort>
}
 80019b8:	0001883a 	nop
 80019bc:	e037883a 	mov	sp,fp
 80019c0:	dfc00117 	ldw	ra,4(sp)
 80019c4:	df000017 	ldw	fp,0(sp)
 80019c8:	dec00204 	addi	sp,sp,8
 80019cc:	f800283a 	ret

080019d0 <jpeg_suppress_tables>:
 * jcparam.o would be linked whether the application used it or not.
 */

GLOBAL(void)
jpeg_suppress_tables (j_compress_ptr cinfo, boolean suppress)
{
 80019d0:	defffa04 	addi	sp,sp,-24
 80019d4:	df000515 	stw	fp,20(sp)
 80019d8:	df000504 	addi	fp,sp,20
 80019dc:	e13ffe15 	stw	r4,-8(fp)
 80019e0:	e17fff15 	stw	r5,-4(fp)
  int i;
  JQUANT_TBL * qtbl;
  JHUFF_TBL * htbl;

  for (i = 0; i < NUM_QUANT_TBLS; i++) {
 80019e4:	e03ffb15 	stw	zero,-20(fp)
 80019e8:	00001006 	br	8001a2c <jpeg_suppress_tables+0x5c>
    if ((qtbl = cinfo->quant_tbl_ptrs[i]) != NULL)
 80019ec:	e0fffe17 	ldw	r3,-8(fp)
 80019f0:	e0bffb17 	ldw	r2,-20(fp)
 80019f4:	10800404 	addi	r2,r2,16
 80019f8:	1085883a 	add	r2,r2,r2
 80019fc:	1085883a 	add	r2,r2,r2
 8001a00:	1885883a 	add	r2,r3,r2
 8001a04:	10800017 	ldw	r2,0(r2)
 8001a08:	e0bffc15 	stw	r2,-16(fp)
 8001a0c:	e0bffc17 	ldw	r2,-16(fp)
 8001a10:	10000326 	beq	r2,zero,8001a20 <jpeg_suppress_tables+0x50>
      qtbl->sent_table = suppress;
 8001a14:	e0bffc17 	ldw	r2,-16(fp)
 8001a18:	e0ffff17 	ldw	r3,-4(fp)
 8001a1c:	10c02015 	stw	r3,128(r2)
{
  int i;
  JQUANT_TBL * qtbl;
  JHUFF_TBL * htbl;

  for (i = 0; i < NUM_QUANT_TBLS; i++) {
 8001a20:	e0bffb17 	ldw	r2,-20(fp)
 8001a24:	10800044 	addi	r2,r2,1
 8001a28:	e0bffb15 	stw	r2,-20(fp)
 8001a2c:	e0bffb17 	ldw	r2,-20(fp)
 8001a30:	10800110 	cmplti	r2,r2,4
 8001a34:	103fed1e 	bne	r2,zero,80019ec <jpeg_suppress_tables+0x1c>
    if ((qtbl = cinfo->quant_tbl_ptrs[i]) != NULL)
      qtbl->sent_table = suppress;
  }

  for (i = 0; i < NUM_HUFF_TBLS; i++) {
 8001a38:	e03ffb15 	stw	zero,-20(fp)
 8001a3c:	00001d06 	br	8001ab4 <jpeg_suppress_tables+0xe4>
    if ((htbl = cinfo->dc_huff_tbl_ptrs[i]) != NULL)
 8001a40:	e0fffe17 	ldw	r3,-8(fp)
 8001a44:	e0bffb17 	ldw	r2,-20(fp)
 8001a48:	10800504 	addi	r2,r2,20
 8001a4c:	1085883a 	add	r2,r2,r2
 8001a50:	1085883a 	add	r2,r2,r2
 8001a54:	1885883a 	add	r2,r3,r2
 8001a58:	10800017 	ldw	r2,0(r2)
 8001a5c:	e0bffd15 	stw	r2,-12(fp)
 8001a60:	e0bffd17 	ldw	r2,-12(fp)
 8001a64:	10000326 	beq	r2,zero,8001a74 <jpeg_suppress_tables+0xa4>
      htbl->sent_table = suppress;
 8001a68:	e0bffd17 	ldw	r2,-12(fp)
 8001a6c:	e0ffff17 	ldw	r3,-4(fp)
 8001a70:	10c04515 	stw	r3,276(r2)
    if ((htbl = cinfo->ac_huff_tbl_ptrs[i]) != NULL)
 8001a74:	e0fffe17 	ldw	r3,-8(fp)
 8001a78:	e0bffb17 	ldw	r2,-20(fp)
 8001a7c:	10800604 	addi	r2,r2,24
 8001a80:	1085883a 	add	r2,r2,r2
 8001a84:	1085883a 	add	r2,r2,r2
 8001a88:	1885883a 	add	r2,r3,r2
 8001a8c:	10800017 	ldw	r2,0(r2)
 8001a90:	e0bffd15 	stw	r2,-12(fp)
 8001a94:	e0bffd17 	ldw	r2,-12(fp)
 8001a98:	10000326 	beq	r2,zero,8001aa8 <jpeg_suppress_tables+0xd8>
      htbl->sent_table = suppress;
 8001a9c:	e0bffd17 	ldw	r2,-12(fp)
 8001aa0:	e0ffff17 	ldw	r3,-4(fp)
 8001aa4:	10c04515 	stw	r3,276(r2)
  for (i = 0; i < NUM_QUANT_TBLS; i++) {
    if ((qtbl = cinfo->quant_tbl_ptrs[i]) != NULL)
      qtbl->sent_table = suppress;
  }

  for (i = 0; i < NUM_HUFF_TBLS; i++) {
 8001aa8:	e0bffb17 	ldw	r2,-20(fp)
 8001aac:	10800044 	addi	r2,r2,1
 8001ab0:	e0bffb15 	stw	r2,-20(fp)
 8001ab4:	e0bffb17 	ldw	r2,-20(fp)
 8001ab8:	10800110 	cmplti	r2,r2,4
 8001abc:	103fe01e 	bne	r2,zero,8001a40 <jpeg_suppress_tables+0x70>
    if ((htbl = cinfo->dc_huff_tbl_ptrs[i]) != NULL)
      htbl->sent_table = suppress;
    if ((htbl = cinfo->ac_huff_tbl_ptrs[i]) != NULL)
      htbl->sent_table = suppress;
  }
}
 8001ac0:	0001883a 	nop
 8001ac4:	e037883a 	mov	sp,fp
 8001ac8:	df000017 	ldw	fp,0(sp)
 8001acc:	dec00104 	addi	sp,sp,4
 8001ad0:	f800283a 	ret

08001ad4 <jpeg_finish_compress>:
 * work including most of the actual output.
 */

GLOBAL(void)
jpeg_finish_compress (j_compress_ptr cinfo)
{
 8001ad4:	defffc04 	addi	sp,sp,-16
 8001ad8:	dfc00315 	stw	ra,12(sp)
 8001adc:	df000215 	stw	fp,8(sp)
 8001ae0:	df000204 	addi	fp,sp,8
 8001ae4:	e13fff15 	stw	r4,-4(fp)
  JDIMENSION iMCU_row;

  if (cinfo->global_state == CSTATE_SCANNING ||
 8001ae8:	e0bfff17 	ldw	r2,-4(fp)
 8001aec:	10800417 	ldw	r2,16(r2)
 8001af0:	10801960 	cmpeqi	r2,r2,101
 8001af4:	1000041e 	bne	r2,zero,8001b08 <jpeg_finish_compress+0x34>
      cinfo->global_state == CSTATE_RAW_OK) {
 8001af8:	e0bfff17 	ldw	r2,-4(fp)
 8001afc:	10800417 	ldw	r2,16(r2)
GLOBAL(void)
jpeg_finish_compress (j_compress_ptr cinfo)
{
  JDIMENSION iMCU_row;

  if (cinfo->global_state == CSTATE_SCANNING ||
 8001b00:	10801998 	cmpnei	r2,r2,102
 8001b04:	1000141e 	bne	r2,zero,8001b58 <jpeg_finish_compress+0x84>
      cinfo->global_state == CSTATE_RAW_OK) {
    /* Terminate first pass */
    if (cinfo->next_scanline < cinfo->image_height)
 8001b08:	e0bfff17 	ldw	r2,-4(fp)
 8001b0c:	10c03617 	ldw	r3,216(r2)
 8001b10:	e0bfff17 	ldw	r2,-4(fp)
 8001b14:	10800717 	ldw	r2,28(r2)
 8001b18:	1880092e 	bgeu	r3,r2,8001b40 <jpeg_finish_compress+0x6c>
      ERREXIT(cinfo, JERR_TOO_LITTLE_DATA);
 8001b1c:	e0bfff17 	ldw	r2,-4(fp)
 8001b20:	10800017 	ldw	r2,0(r2)
 8001b24:	00c01084 	movi	r3,66
 8001b28:	10c00515 	stw	r3,20(r2)
 8001b2c:	e0bfff17 	ldw	r2,-4(fp)
 8001b30:	10800017 	ldw	r2,0(r2)
 8001b34:	10800017 	ldw	r2,0(r2)
 8001b38:	e13fff17 	ldw	r4,-4(fp)
 8001b3c:	103ee83a 	callr	r2
    (*cinfo->master->finish_pass) (cinfo);
 8001b40:	e0bfff17 	ldw	r2,-4(fp)
 8001b44:	10805117 	ldw	r2,324(r2)
 8001b48:	10800217 	ldw	r2,8(r2)
 8001b4c:	e13fff17 	ldw	r4,-4(fp)
 8001b50:	103ee83a 	callr	r2
 8001b54:	00001206 	br	8001ba0 <jpeg_finish_compress+0xcc>
  } else if (cinfo->global_state != CSTATE_WRCOEFS)
 8001b58:	e0bfff17 	ldw	r2,-4(fp)
 8001b5c:	10800417 	ldw	r2,16(r2)
 8001b60:	108019e0 	cmpeqi	r2,r2,103
 8001b64:	1000431e 	bne	r2,zero,8001c74 <jpeg_finish_compress+0x1a0>
    ERREXIT1(cinfo, JERR_BAD_STATE, cinfo->global_state);
 8001b68:	e0bfff17 	ldw	r2,-4(fp)
 8001b6c:	10800017 	ldw	r2,0(r2)
 8001b70:	00c00484 	movi	r3,18
 8001b74:	10c00515 	stw	r3,20(r2)
 8001b78:	e0bfff17 	ldw	r2,-4(fp)
 8001b7c:	10800017 	ldw	r2,0(r2)
 8001b80:	e0ffff17 	ldw	r3,-4(fp)
 8001b84:	18c00417 	ldw	r3,16(r3)
 8001b88:	10c00615 	stw	r3,24(r2)
 8001b8c:	e0bfff17 	ldw	r2,-4(fp)
 8001b90:	10800017 	ldw	r2,0(r2)
 8001b94:	10800017 	ldw	r2,0(r2)
 8001b98:	e13fff17 	ldw	r4,-4(fp)
 8001b9c:	103ee83a 	callr	r2
  /* Perform any remaining passes */
  while (! cinfo->master->is_last_pass) {
 8001ba0:	00003406 	br	8001c74 <jpeg_finish_compress+0x1a0>
    (*cinfo->master->prepare_for_pass) (cinfo);
 8001ba4:	e0bfff17 	ldw	r2,-4(fp)
 8001ba8:	10805117 	ldw	r2,324(r2)
 8001bac:	10800017 	ldw	r2,0(r2)
 8001bb0:	e13fff17 	ldw	r4,-4(fp)
 8001bb4:	103ee83a 	callr	r2
    for (iMCU_row = 0; iMCU_row < cinfo->total_iMCU_rows; iMCU_row++) {
 8001bb8:	e03ffe15 	stw	zero,-8(fp)
 8001bbc:	00002406 	br	8001c50 <jpeg_finish_compress+0x17c>
      if (cinfo->progress != NULL) {
 8001bc0:	e0bfff17 	ldw	r2,-4(fp)
 8001bc4:	10800217 	ldw	r2,8(r2)
 8001bc8:	10000e26 	beq	r2,zero,8001c04 <jpeg_finish_compress+0x130>
	cinfo->progress->pass_counter = (long) iMCU_row;
 8001bcc:	e0bfff17 	ldw	r2,-4(fp)
 8001bd0:	10800217 	ldw	r2,8(r2)
 8001bd4:	e0fffe17 	ldw	r3,-8(fp)
 8001bd8:	10c00115 	stw	r3,4(r2)
	cinfo->progress->pass_limit = (long) cinfo->total_iMCU_rows;
 8001bdc:	e0bfff17 	ldw	r2,-4(fp)
 8001be0:	10800217 	ldw	r2,8(r2)
 8001be4:	e0ffff17 	ldw	r3,-4(fp)
 8001be8:	18c03a17 	ldw	r3,232(r3)
 8001bec:	10c00215 	stw	r3,8(r2)
	(*cinfo->progress->progress_monitor) ((j_common_ptr) cinfo);
 8001bf0:	e0bfff17 	ldw	r2,-4(fp)
 8001bf4:	10800217 	ldw	r2,8(r2)
 8001bf8:	10800017 	ldw	r2,0(r2)
 8001bfc:	e13fff17 	ldw	r4,-4(fp)
 8001c00:	103ee83a 	callr	r2
      }
      /* We bypass the main controller and invoke coef controller directly;
       * all work is being done from the coefficient buffer.
       */
      if (! (*cinfo->coef->compress_data) (cinfo, (JSAMPIMAGE) NULL))
 8001c04:	e0bfff17 	ldw	r2,-4(fp)
 8001c08:	10805417 	ldw	r2,336(r2)
 8001c0c:	10800117 	ldw	r2,4(r2)
 8001c10:	000b883a 	mov	r5,zero
 8001c14:	e13fff17 	ldw	r4,-4(fp)
 8001c18:	103ee83a 	callr	r2
 8001c1c:	1000091e 	bne	r2,zero,8001c44 <jpeg_finish_compress+0x170>
	ERREXIT(cinfo, JERR_CANT_SUSPEND);
 8001c20:	e0bfff17 	ldw	r2,-4(fp)
 8001c24:	10800017 	ldw	r2,0(r2)
 8001c28:	00c00584 	movi	r3,22
 8001c2c:	10c00515 	stw	r3,20(r2)
 8001c30:	e0bfff17 	ldw	r2,-4(fp)
 8001c34:	10800017 	ldw	r2,0(r2)
 8001c38:	10800017 	ldw	r2,0(r2)
 8001c3c:	e13fff17 	ldw	r4,-4(fp)
 8001c40:	103ee83a 	callr	r2
  } else if (cinfo->global_state != CSTATE_WRCOEFS)
    ERREXIT1(cinfo, JERR_BAD_STATE, cinfo->global_state);
  /* Perform any remaining passes */
  while (! cinfo->master->is_last_pass) {
    (*cinfo->master->prepare_for_pass) (cinfo);
    for (iMCU_row = 0; iMCU_row < cinfo->total_iMCU_rows; iMCU_row++) {
 8001c44:	e0bffe17 	ldw	r2,-8(fp)
 8001c48:	10800044 	addi	r2,r2,1
 8001c4c:	e0bffe15 	stw	r2,-8(fp)
 8001c50:	e0bfff17 	ldw	r2,-4(fp)
 8001c54:	10803a17 	ldw	r2,232(r2)
 8001c58:	e0fffe17 	ldw	r3,-8(fp)
 8001c5c:	18bfd836 	bltu	r3,r2,8001bc0 <jpeg_finish_compress+0xec>
       * all work is being done from the coefficient buffer.
       */
      if (! (*cinfo->coef->compress_data) (cinfo, (JSAMPIMAGE) NULL))
	ERREXIT(cinfo, JERR_CANT_SUSPEND);
    }
    (*cinfo->master->finish_pass) (cinfo);
 8001c60:	e0bfff17 	ldw	r2,-4(fp)
 8001c64:	10805117 	ldw	r2,324(r2)
 8001c68:	10800217 	ldw	r2,8(r2)
 8001c6c:	e13fff17 	ldw	r4,-4(fp)
 8001c70:	103ee83a 	callr	r2
      ERREXIT(cinfo, JERR_TOO_LITTLE_DATA);
    (*cinfo->master->finish_pass) (cinfo);
  } else if (cinfo->global_state != CSTATE_WRCOEFS)
    ERREXIT1(cinfo, JERR_BAD_STATE, cinfo->global_state);
  /* Perform any remaining passes */
  while (! cinfo->master->is_last_pass) {
 8001c74:	e0bfff17 	ldw	r2,-4(fp)
 8001c78:	10805117 	ldw	r2,324(r2)
 8001c7c:	10800417 	ldw	r2,16(r2)
 8001c80:	103fc826 	beq	r2,zero,8001ba4 <jpeg_finish_compress+0xd0>
	ERREXIT(cinfo, JERR_CANT_SUSPEND);
    }
    (*cinfo->master->finish_pass) (cinfo);
  }
  /* Write EOI, do final cleanup */
  (*cinfo->marker->write_file_trailer) (cinfo);
 8001c84:	e0bfff17 	ldw	r2,-4(fp)
 8001c88:	10805517 	ldw	r2,340(r2)
 8001c8c:	10800417 	ldw	r2,16(r2)
 8001c90:	e13fff17 	ldw	r4,-4(fp)
 8001c94:	103ee83a 	callr	r2
  (*cinfo->dest->term_destination) (cinfo);
 8001c98:	e0bfff17 	ldw	r2,-4(fp)
 8001c9c:	10800517 	ldw	r2,20(r2)
 8001ca0:	10800417 	ldw	r2,16(r2)
 8001ca4:	e13fff17 	ldw	r4,-4(fp)
 8001ca8:	103ee83a 	callr	r2
  /* We can use jpeg_abort to release memory and reset global_state */
  jpeg_abort((j_common_ptr) cinfo);
 8001cac:	e13fff17 	ldw	r4,-4(fp)
 8001cb0:	80097f80 	call	80097f8 <jpeg_abort>
}
 8001cb4:	0001883a 	nop
 8001cb8:	e037883a 	mov	sp,fp
 8001cbc:	dfc00117 	ldw	ra,4(sp)
 8001cc0:	df000017 	ldw	fp,0(sp)
 8001cc4:	dec00204 	addi	sp,sp,8
 8001cc8:	f800283a 	ret

08001ccc <jpeg_write_marker>:
 */

GLOBAL(void)
jpeg_write_marker (j_compress_ptr cinfo, int marker,
		   const JOCTET *dataptr, unsigned int datalen)
{
 8001ccc:	defffa04 	addi	sp,sp,-24
 8001cd0:	dfc00515 	stw	ra,20(sp)
 8001cd4:	df000415 	stw	fp,16(sp)
 8001cd8:	df000404 	addi	fp,sp,16
 8001cdc:	e13ffc15 	stw	r4,-16(fp)
 8001ce0:	e17ffd15 	stw	r5,-12(fp)
 8001ce4:	e1bffe15 	stw	r6,-8(fp)
 8001ce8:	e1ffff15 	stw	r7,-4(fp)
  if (cinfo->next_scanline != 0 ||
 8001cec:	e0bffc17 	ldw	r2,-16(fp)
 8001cf0:	10803617 	ldw	r2,216(r2)
 8001cf4:	10000c1e 	bne	r2,zero,8001d28 <jpeg_write_marker+0x5c>
      (cinfo->global_state != CSTATE_SCANNING &&
 8001cf8:	e0bffc17 	ldw	r2,-16(fp)
 8001cfc:	10800417 	ldw	r2,16(r2)

GLOBAL(void)
jpeg_write_marker (j_compress_ptr cinfo, int marker,
		   const JOCTET *dataptr, unsigned int datalen)
{
  if (cinfo->next_scanline != 0 ||
 8001d00:	10801960 	cmpeqi	r2,r2,101
 8001d04:	1000161e 	bne	r2,zero,8001d60 <jpeg_write_marker+0x94>
      (cinfo->global_state != CSTATE_SCANNING &&
       cinfo->global_state != CSTATE_RAW_OK &&
 8001d08:	e0bffc17 	ldw	r2,-16(fp)
 8001d0c:	10800417 	ldw	r2,16(r2)
GLOBAL(void)
jpeg_write_marker (j_compress_ptr cinfo, int marker,
		   const JOCTET *dataptr, unsigned int datalen)
{
  if (cinfo->next_scanline != 0 ||
      (cinfo->global_state != CSTATE_SCANNING &&
 8001d10:	108019a0 	cmpeqi	r2,r2,102
 8001d14:	1000121e 	bne	r2,zero,8001d60 <jpeg_write_marker+0x94>
       cinfo->global_state != CSTATE_RAW_OK &&
       cinfo->global_state != CSTATE_WRCOEFS))
 8001d18:	e0bffc17 	ldw	r2,-16(fp)
 8001d1c:	10800417 	ldw	r2,16(r2)
jpeg_write_marker (j_compress_ptr cinfo, int marker,
		   const JOCTET *dataptr, unsigned int datalen)
{
  if (cinfo->next_scanline != 0 ||
      (cinfo->global_state != CSTATE_SCANNING &&
       cinfo->global_state != CSTATE_RAW_OK &&
 8001d20:	108019e0 	cmpeqi	r2,r2,103
 8001d24:	10000e1e 	bne	r2,zero,8001d60 <jpeg_write_marker+0x94>
       cinfo->global_state != CSTATE_WRCOEFS))
    ERREXIT1(cinfo, JERR_BAD_STATE, cinfo->global_state);
 8001d28:	e0bffc17 	ldw	r2,-16(fp)
 8001d2c:	10800017 	ldw	r2,0(r2)
 8001d30:	00c00484 	movi	r3,18
 8001d34:	10c00515 	stw	r3,20(r2)
 8001d38:	e0bffc17 	ldw	r2,-16(fp)
 8001d3c:	10800017 	ldw	r2,0(r2)
 8001d40:	e0fffc17 	ldw	r3,-16(fp)
 8001d44:	18c00417 	ldw	r3,16(r3)
 8001d48:	10c00615 	stw	r3,24(r2)
 8001d4c:	e0bffc17 	ldw	r2,-16(fp)
 8001d50:	10800017 	ldw	r2,0(r2)
 8001d54:	10800017 	ldw	r2,0(r2)
 8001d58:	e13ffc17 	ldw	r4,-16(fp)
 8001d5c:	103ee83a 	callr	r2

  (*cinfo->marker->write_any_marker) (cinfo, marker, dataptr, datalen);
 8001d60:	e0bffc17 	ldw	r2,-16(fp)
 8001d64:	10805517 	ldw	r2,340(r2)
 8001d68:	10800017 	ldw	r2,0(r2)
 8001d6c:	e1ffff17 	ldw	r7,-4(fp)
 8001d70:	e1bffe17 	ldw	r6,-8(fp)
 8001d74:	e17ffd17 	ldw	r5,-12(fp)
 8001d78:	e13ffc17 	ldw	r4,-16(fp)
 8001d7c:	103ee83a 	callr	r2
}
 8001d80:	0001883a 	nop
 8001d84:	e037883a 	mov	sp,fp
 8001d88:	dfc00117 	ldw	ra,4(sp)
 8001d8c:	df000017 	ldw	fp,0(sp)
 8001d90:	dec00204 	addi	sp,sp,8
 8001d94:	f800283a 	ret

08001d98 <jpeg_write_tables>:
 * will not re-emit the tables unless it is passed write_all_tables=TRUE.
 */

GLOBAL(void)
jpeg_write_tables (j_compress_ptr cinfo)
{
 8001d98:	defffd04 	addi	sp,sp,-12
 8001d9c:	dfc00215 	stw	ra,8(sp)
 8001da0:	df000115 	stw	fp,4(sp)
 8001da4:	df000104 	addi	fp,sp,4
 8001da8:	e13fff15 	stw	r4,-4(fp)
  if (cinfo->global_state != CSTATE_START)
 8001dac:	e0bfff17 	ldw	r2,-4(fp)
 8001db0:	10800417 	ldw	r2,16(r2)
 8001db4:	10801920 	cmpeqi	r2,r2,100
 8001db8:	10000e1e 	bne	r2,zero,8001df4 <jpeg_write_tables+0x5c>
    ERREXIT1(cinfo, JERR_BAD_STATE, cinfo->global_state);
 8001dbc:	e0bfff17 	ldw	r2,-4(fp)
 8001dc0:	10800017 	ldw	r2,0(r2)
 8001dc4:	00c00484 	movi	r3,18
 8001dc8:	10c00515 	stw	r3,20(r2)
 8001dcc:	e0bfff17 	ldw	r2,-4(fp)
 8001dd0:	10800017 	ldw	r2,0(r2)
 8001dd4:	e0ffff17 	ldw	r3,-4(fp)
 8001dd8:	18c00417 	ldw	r3,16(r3)
 8001ddc:	10c00615 	stw	r3,24(r2)
 8001de0:	e0bfff17 	ldw	r2,-4(fp)
 8001de4:	10800017 	ldw	r2,0(r2)
 8001de8:	10800017 	ldw	r2,0(r2)
 8001dec:	e13fff17 	ldw	r4,-4(fp)
 8001df0:	103ee83a 	callr	r2

  /* (Re)initialize error mgr and destination modules */
  (*cinfo->err->reset_error_mgr) ((j_common_ptr) cinfo);
 8001df4:	e0bfff17 	ldw	r2,-4(fp)
 8001df8:	10800017 	ldw	r2,0(r2)
 8001dfc:	10800417 	ldw	r2,16(r2)
 8001e00:	e13fff17 	ldw	r4,-4(fp)
 8001e04:	103ee83a 	callr	r2
  (*cinfo->dest->init_destination) (cinfo);
 8001e08:	e0bfff17 	ldw	r2,-4(fp)
 8001e0c:	10800517 	ldw	r2,20(r2)
 8001e10:	10800217 	ldw	r2,8(r2)
 8001e14:	e13fff17 	ldw	r4,-4(fp)
 8001e18:	103ee83a 	callr	r2
  /* Initialize the marker writer ... bit of a crock to do it here. */
  jinit_marker_writer(cinfo);
 8001e1c:	e13fff17 	ldw	r4,-4(fp)
 8001e20:	8007ff00 	call	8007ff0 <jinit_marker_writer>
  /* Write them tables! */
  (*cinfo->marker->write_tables_only) (cinfo);
 8001e24:	e0bfff17 	ldw	r2,-4(fp)
 8001e28:	10805517 	ldw	r2,340(r2)
 8001e2c:	10800517 	ldw	r2,20(r2)
 8001e30:	e13fff17 	ldw	r4,-4(fp)
 8001e34:	103ee83a 	callr	r2
  /* And clean up. */
  (*cinfo->dest->term_destination) (cinfo);
 8001e38:	e0bfff17 	ldw	r2,-4(fp)
 8001e3c:	10800517 	ldw	r2,20(r2)
 8001e40:	10800417 	ldw	r2,16(r2)
 8001e44:	e13fff17 	ldw	r4,-4(fp)
 8001e48:	103ee83a 	callr	r2
  /* We can use jpeg_abort to release memory. */
  jpeg_abort((j_common_ptr) cinfo);
 8001e4c:	e13fff17 	ldw	r4,-4(fp)
 8001e50:	80097f80 	call	80097f8 <jpeg_abort>
}
 8001e54:	0001883a 	nop
 8001e58:	e037883a 	mov	sp,fp
 8001e5c:	dfc00117 	ldw	ra,4(sp)
 8001e60:	df000017 	ldw	fp,0(sp)
 8001e64:	dec00204 	addi	sp,sp,8
 8001e68:	f800283a 	ret

08001e6c <jpeg_start_compress>:
 * wrong thing.
 */

GLOBAL(void)
jpeg_start_compress (j_compress_ptr cinfo, boolean write_all_tables)
{
 8001e6c:	defffc04 	addi	sp,sp,-16
 8001e70:	dfc00315 	stw	ra,12(sp)
 8001e74:	df000215 	stw	fp,8(sp)
 8001e78:	df000204 	addi	fp,sp,8
 8001e7c:	e13ffe15 	stw	r4,-8(fp)
 8001e80:	e17fff15 	stw	r5,-4(fp)
  if (cinfo->global_state != CSTATE_START)
 8001e84:	e0bffe17 	ldw	r2,-8(fp)
 8001e88:	10800417 	ldw	r2,16(r2)
 8001e8c:	10801920 	cmpeqi	r2,r2,100
 8001e90:	10000e1e 	bne	r2,zero,8001ecc <jpeg_start_compress+0x60>
    ERREXIT1(cinfo, JERR_BAD_STATE, cinfo->global_state);
 8001e94:	e0bffe17 	ldw	r2,-8(fp)
 8001e98:	10800017 	ldw	r2,0(r2)
 8001e9c:	00c00484 	movi	r3,18
 8001ea0:	10c00515 	stw	r3,20(r2)
 8001ea4:	e0bffe17 	ldw	r2,-8(fp)
 8001ea8:	10800017 	ldw	r2,0(r2)
 8001eac:	e0fffe17 	ldw	r3,-8(fp)
 8001eb0:	18c00417 	ldw	r3,16(r3)
 8001eb4:	10c00615 	stw	r3,24(r2)
 8001eb8:	e0bffe17 	ldw	r2,-8(fp)
 8001ebc:	10800017 	ldw	r2,0(r2)
 8001ec0:	10800017 	ldw	r2,0(r2)
 8001ec4:	e13ffe17 	ldw	r4,-8(fp)
 8001ec8:	103ee83a 	callr	r2

  if (write_all_tables)
 8001ecc:	e0bfff17 	ldw	r2,-4(fp)
 8001ed0:	10000326 	beq	r2,zero,8001ee0 <jpeg_start_compress+0x74>
    jpeg_suppress_tables(cinfo, FALSE);	/* mark all tables to be written */
 8001ed4:	000b883a 	mov	r5,zero
 8001ed8:	e13ffe17 	ldw	r4,-8(fp)
 8001edc:	80019d00 	call	80019d0 <jpeg_suppress_tables>

  /* (Re)initialize error mgr and destination modules */
  (*cinfo->err->reset_error_mgr) ((j_common_ptr) cinfo);
 8001ee0:	e0bffe17 	ldw	r2,-8(fp)
 8001ee4:	10800017 	ldw	r2,0(r2)
 8001ee8:	10800417 	ldw	r2,16(r2)
 8001eec:	e13ffe17 	ldw	r4,-8(fp)
 8001ef0:	103ee83a 	callr	r2
  (*cinfo->dest->init_destination) (cinfo);
 8001ef4:	e0bffe17 	ldw	r2,-8(fp)
 8001ef8:	10800517 	ldw	r2,20(r2)
 8001efc:	10800217 	ldw	r2,8(r2)
 8001f00:	e13ffe17 	ldw	r4,-8(fp)
 8001f04:	103ee83a 	callr	r2
  /* Perform master selection of active modules */
  jinit_compress_master(cinfo);
 8001f08:	e13ffe17 	ldw	r4,-8(fp)
 8001f0c:	8006bc40 	call	8006bc4 <jinit_compress_master>
  /* Set up for the first pass */
  (*cinfo->master->prepare_for_pass) (cinfo);
 8001f10:	e0bffe17 	ldw	r2,-8(fp)
 8001f14:	10805117 	ldw	r2,324(r2)
 8001f18:	10800017 	ldw	r2,0(r2)
 8001f1c:	e13ffe17 	ldw	r4,-8(fp)
 8001f20:	103ee83a 	callr	r2
  /* Ready for application to drive first pass through jpeg_write_scanlines
   * or jpeg_write_raw_data.
   */
  cinfo->next_scanline = 0;
 8001f24:	e0bffe17 	ldw	r2,-8(fp)
 8001f28:	10003615 	stw	zero,216(r2)
  cinfo->global_state = (cinfo->raw_data_in ? CSTATE_RAW_OK : CSTATE_SCANNING);
 8001f2c:	e0bffe17 	ldw	r2,-8(fp)
 8001f30:	10802a17 	ldw	r2,168(r2)
 8001f34:	10000226 	beq	r2,zero,8001f40 <jpeg_start_compress+0xd4>
 8001f38:	00801984 	movi	r2,102
 8001f3c:	00000106 	br	8001f44 <jpeg_start_compress+0xd8>
 8001f40:	00801944 	movi	r2,101
 8001f44:	e0fffe17 	ldw	r3,-8(fp)
 8001f48:	18800415 	stw	r2,16(r3)
}
 8001f4c:	0001883a 	nop
 8001f50:	e037883a 	mov	sp,fp
 8001f54:	dfc00117 	ldw	ra,4(sp)
 8001f58:	df000017 	ldw	fp,0(sp)
 8001f5c:	dec00204 	addi	sp,sp,8
 8001f60:	f800283a 	ret

08001f64 <jpeg_write_scanlines>:
 */

GLOBAL(JDIMENSION)
jpeg_write_scanlines (j_compress_ptr cinfo, JSAMPARRAY scanlines,
		      JDIMENSION num_lines)
{
 8001f64:	defff904 	addi	sp,sp,-28
 8001f68:	dfc00615 	stw	ra,24(sp)
 8001f6c:	df000515 	stw	fp,20(sp)
 8001f70:	df000504 	addi	fp,sp,20
 8001f74:	e13ffd15 	stw	r4,-12(fp)
 8001f78:	e17ffe15 	stw	r5,-8(fp)
 8001f7c:	e1bfff15 	stw	r6,-4(fp)
  JDIMENSION row_ctr, rows_left;

  if (cinfo->global_state != CSTATE_SCANNING)
 8001f80:	e0bffd17 	ldw	r2,-12(fp)
 8001f84:	10800417 	ldw	r2,16(r2)
 8001f88:	10801960 	cmpeqi	r2,r2,101
 8001f8c:	10000e1e 	bne	r2,zero,8001fc8 <jpeg_write_scanlines+0x64>
    ERREXIT1(cinfo, JERR_BAD_STATE, cinfo->global_state);
 8001f90:	e0bffd17 	ldw	r2,-12(fp)
 8001f94:	10800017 	ldw	r2,0(r2)
 8001f98:	00c00484 	movi	r3,18
 8001f9c:	10c00515 	stw	r3,20(r2)
 8001fa0:	e0bffd17 	ldw	r2,-12(fp)
 8001fa4:	10800017 	ldw	r2,0(r2)
 8001fa8:	e0fffd17 	ldw	r3,-12(fp)
 8001fac:	18c00417 	ldw	r3,16(r3)
 8001fb0:	10c00615 	stw	r3,24(r2)
 8001fb4:	e0bffd17 	ldw	r2,-12(fp)
 8001fb8:	10800017 	ldw	r2,0(r2)
 8001fbc:	10800017 	ldw	r2,0(r2)
 8001fc0:	e13ffd17 	ldw	r4,-12(fp)
 8001fc4:	103ee83a 	callr	r2
  if (cinfo->next_scanline >= cinfo->image_height)
 8001fc8:	e0bffd17 	ldw	r2,-12(fp)
 8001fcc:	10c03617 	ldw	r3,216(r2)
 8001fd0:	e0bffd17 	ldw	r2,-12(fp)
 8001fd4:	10800717 	ldw	r2,28(r2)
 8001fd8:	18800a36 	bltu	r3,r2,8002004 <jpeg_write_scanlines+0xa0>
    WARNMS(cinfo, JWRN_TOO_MUCH_DATA);
 8001fdc:	e0bffd17 	ldw	r2,-12(fp)
 8001fe0:	10800017 	ldw	r2,0(r2)
 8001fe4:	00c01dc4 	movi	r3,119
 8001fe8:	10c00515 	stw	r3,20(r2)
 8001fec:	e0bffd17 	ldw	r2,-12(fp)
 8001ff0:	10800017 	ldw	r2,0(r2)
 8001ff4:	10800117 	ldw	r2,4(r2)
 8001ff8:	017fffc4 	movi	r5,-1
 8001ffc:	e13ffd17 	ldw	r4,-12(fp)
 8002000:	103ee83a 	callr	r2

  /* Call progress monitor hook if present */
  if (cinfo->progress != NULL) {
 8002004:	e0bffd17 	ldw	r2,-12(fp)
 8002008:	10800217 	ldw	r2,8(r2)
 800200c:	10000f26 	beq	r2,zero,800204c <jpeg_write_scanlines+0xe8>
    cinfo->progress->pass_counter = (long) cinfo->next_scanline;
 8002010:	e0bffd17 	ldw	r2,-12(fp)
 8002014:	10800217 	ldw	r2,8(r2)
 8002018:	e0fffd17 	ldw	r3,-12(fp)
 800201c:	18c03617 	ldw	r3,216(r3)
 8002020:	10c00115 	stw	r3,4(r2)
    cinfo->progress->pass_limit = (long) cinfo->image_height;
 8002024:	e0bffd17 	ldw	r2,-12(fp)
 8002028:	10800217 	ldw	r2,8(r2)
 800202c:	e0fffd17 	ldw	r3,-12(fp)
 8002030:	18c00717 	ldw	r3,28(r3)
 8002034:	10c00215 	stw	r3,8(r2)
    (*cinfo->progress->progress_monitor) ((j_common_ptr) cinfo);
 8002038:	e0bffd17 	ldw	r2,-12(fp)
 800203c:	10800217 	ldw	r2,8(r2)
 8002040:	10800017 	ldw	r2,0(r2)
 8002044:	e13ffd17 	ldw	r4,-12(fp)
 8002048:	103ee83a 	callr	r2
  /* Give master control module another chance if this is first call to
   * jpeg_write_scanlines.  This lets output of the frame/scan headers be
   * delayed so that application can write COM, etc, markers between
   * jpeg_start_compress and jpeg_write_scanlines.
   */
  if (cinfo->master->call_pass_startup)
 800204c:	e0bffd17 	ldw	r2,-12(fp)
 8002050:	10805117 	ldw	r2,324(r2)
 8002054:	10800317 	ldw	r2,12(r2)
 8002058:	10000526 	beq	r2,zero,8002070 <jpeg_write_scanlines+0x10c>
    (*cinfo->master->pass_startup) (cinfo);
 800205c:	e0bffd17 	ldw	r2,-12(fp)
 8002060:	10805117 	ldw	r2,324(r2)
 8002064:	10800117 	ldw	r2,4(r2)
 8002068:	e13ffd17 	ldw	r4,-12(fp)
 800206c:	103ee83a 	callr	r2

  /* Ignore any extra scanlines at bottom of image. */
  rows_left = cinfo->image_height - cinfo->next_scanline;
 8002070:	e0bffd17 	ldw	r2,-12(fp)
 8002074:	10c00717 	ldw	r3,28(r2)
 8002078:	e0bffd17 	ldw	r2,-12(fp)
 800207c:	10803617 	ldw	r2,216(r2)
 8002080:	1885c83a 	sub	r2,r3,r2
 8002084:	e0bffb15 	stw	r2,-20(fp)
  if (num_lines > rows_left)
 8002088:	e0bfff17 	ldw	r2,-4(fp)
 800208c:	e0fffb17 	ldw	r3,-20(fp)
 8002090:	1880022e 	bgeu	r3,r2,800209c <jpeg_write_scanlines+0x138>
    num_lines = rows_left;
 8002094:	e0bffb17 	ldw	r2,-20(fp)
 8002098:	e0bfff15 	stw	r2,-4(fp)

  row_ctr = 0;
 800209c:	e03ffc15 	stw	zero,-16(fp)
  (*cinfo->main->process_data) (cinfo, scanlines, &row_ctr, num_lines);
 80020a0:	e0bffd17 	ldw	r2,-12(fp)
 80020a4:	10805217 	ldw	r2,328(r2)
 80020a8:	10800117 	ldw	r2,4(r2)
 80020ac:	e0fffc04 	addi	r3,fp,-16
 80020b0:	e1ffff17 	ldw	r7,-4(fp)
 80020b4:	180d883a 	mov	r6,r3
 80020b8:	e17ffe17 	ldw	r5,-8(fp)
 80020bc:	e13ffd17 	ldw	r4,-12(fp)
 80020c0:	103ee83a 	callr	r2
  cinfo->next_scanline += row_ctr;
 80020c4:	e0bffd17 	ldw	r2,-12(fp)
 80020c8:	10c03617 	ldw	r3,216(r2)
 80020cc:	e0bffc17 	ldw	r2,-16(fp)
 80020d0:	1887883a 	add	r3,r3,r2
 80020d4:	e0bffd17 	ldw	r2,-12(fp)
 80020d8:	10c03615 	stw	r3,216(r2)
  return row_ctr;
 80020dc:	e0bffc17 	ldw	r2,-16(fp)
}
 80020e0:	e037883a 	mov	sp,fp
 80020e4:	dfc00117 	ldw	ra,4(sp)
 80020e8:	df000017 	ldw	fp,0(sp)
 80020ec:	dec00204 	addi	sp,sp,8
 80020f0:	f800283a 	ret

080020f4 <jpeg_write_raw_data>:
 */

GLOBAL(JDIMENSION)
jpeg_write_raw_data (j_compress_ptr cinfo, JSAMPIMAGE data,
		     JDIMENSION num_lines)
{
 80020f4:	defffa04 	addi	sp,sp,-24
 80020f8:	dfc00515 	stw	ra,20(sp)
 80020fc:	df000415 	stw	fp,16(sp)
 8002100:	df000404 	addi	fp,sp,16
 8002104:	e13ffd15 	stw	r4,-12(fp)
 8002108:	e17ffe15 	stw	r5,-8(fp)
 800210c:	e1bfff15 	stw	r6,-4(fp)
  JDIMENSION lines_per_iMCU_row;

  if (cinfo->global_state != CSTATE_RAW_OK)
 8002110:	e0bffd17 	ldw	r2,-12(fp)
 8002114:	10800417 	ldw	r2,16(r2)
 8002118:	108019a0 	cmpeqi	r2,r2,102
 800211c:	10000e1e 	bne	r2,zero,8002158 <jpeg_write_raw_data+0x64>
    ERREXIT1(cinfo, JERR_BAD_STATE, cinfo->global_state);
 8002120:	e0bffd17 	ldw	r2,-12(fp)
 8002124:	10800017 	ldw	r2,0(r2)
 8002128:	00c00484 	movi	r3,18
 800212c:	10c00515 	stw	r3,20(r2)
 8002130:	e0bffd17 	ldw	r2,-12(fp)
 8002134:	10800017 	ldw	r2,0(r2)
 8002138:	e0fffd17 	ldw	r3,-12(fp)
 800213c:	18c00417 	ldw	r3,16(r3)
 8002140:	10c00615 	stw	r3,24(r2)
 8002144:	e0bffd17 	ldw	r2,-12(fp)
 8002148:	10800017 	ldw	r2,0(r2)
 800214c:	10800017 	ldw	r2,0(r2)
 8002150:	e13ffd17 	ldw	r4,-12(fp)
 8002154:	103ee83a 	callr	r2
  if (cinfo->next_scanline >= cinfo->image_height) {
 8002158:	e0bffd17 	ldw	r2,-12(fp)
 800215c:	10c03617 	ldw	r3,216(r2)
 8002160:	e0bffd17 	ldw	r2,-12(fp)
 8002164:	10800717 	ldw	r2,28(r2)
 8002168:	18800c36 	bltu	r3,r2,800219c <jpeg_write_raw_data+0xa8>
    WARNMS(cinfo, JWRN_TOO_MUCH_DATA);
 800216c:	e0bffd17 	ldw	r2,-12(fp)
 8002170:	10800017 	ldw	r2,0(r2)
 8002174:	00c01dc4 	movi	r3,119
 8002178:	10c00515 	stw	r3,20(r2)
 800217c:	e0bffd17 	ldw	r2,-12(fp)
 8002180:	10800017 	ldw	r2,0(r2)
 8002184:	10800117 	ldw	r2,4(r2)
 8002188:	017fffc4 	movi	r5,-1
 800218c:	e13ffd17 	ldw	r4,-12(fp)
 8002190:	103ee83a 	callr	r2
    return 0;
 8002194:	0005883a 	mov	r2,zero
 8002198:	00003b06 	br	8002288 <jpeg_write_raw_data+0x194>
  }

  /* Call progress monitor hook if present */
  if (cinfo->progress != NULL) {
 800219c:	e0bffd17 	ldw	r2,-12(fp)
 80021a0:	10800217 	ldw	r2,8(r2)
 80021a4:	10000f26 	beq	r2,zero,80021e4 <jpeg_write_raw_data+0xf0>
    cinfo->progress->pass_counter = (long) cinfo->next_scanline;
 80021a8:	e0bffd17 	ldw	r2,-12(fp)
 80021ac:	10800217 	ldw	r2,8(r2)
 80021b0:	e0fffd17 	ldw	r3,-12(fp)
 80021b4:	18c03617 	ldw	r3,216(r3)
 80021b8:	10c00115 	stw	r3,4(r2)
    cinfo->progress->pass_limit = (long) cinfo->image_height;
 80021bc:	e0bffd17 	ldw	r2,-12(fp)
 80021c0:	10800217 	ldw	r2,8(r2)
 80021c4:	e0fffd17 	ldw	r3,-12(fp)
 80021c8:	18c00717 	ldw	r3,28(r3)
 80021cc:	10c00215 	stw	r3,8(r2)
    (*cinfo->progress->progress_monitor) ((j_common_ptr) cinfo);
 80021d0:	e0bffd17 	ldw	r2,-12(fp)
 80021d4:	10800217 	ldw	r2,8(r2)
 80021d8:	10800017 	ldw	r2,0(r2)
 80021dc:	e13ffd17 	ldw	r4,-12(fp)
 80021e0:	103ee83a 	callr	r2
  /* Give master control module another chance if this is first call to
   * jpeg_write_raw_data.  This lets output of the frame/scan headers be
   * delayed so that application can write COM, etc, markers between
   * jpeg_start_compress and jpeg_write_raw_data.
   */
  if (cinfo->master->call_pass_startup)
 80021e4:	e0bffd17 	ldw	r2,-12(fp)
 80021e8:	10805117 	ldw	r2,324(r2)
 80021ec:	10800317 	ldw	r2,12(r2)
 80021f0:	10000526 	beq	r2,zero,8002208 <jpeg_write_raw_data+0x114>
    (*cinfo->master->pass_startup) (cinfo);
 80021f4:	e0bffd17 	ldw	r2,-12(fp)
 80021f8:	10805117 	ldw	r2,324(r2)
 80021fc:	10800117 	ldw	r2,4(r2)
 8002200:	e13ffd17 	ldw	r4,-12(fp)
 8002204:	103ee83a 	callr	r2

  /* Verify that at least one iMCU row has been passed. */
  lines_per_iMCU_row = cinfo->max_v_samp_factor * DCTSIZE;
 8002208:	e0bffd17 	ldw	r2,-12(fp)
 800220c:	10803917 	ldw	r2,228(r2)
 8002210:	100490fa 	slli	r2,r2,3
 8002214:	e0bffc15 	stw	r2,-16(fp)
  if (num_lines < lines_per_iMCU_row)
 8002218:	e0ffff17 	ldw	r3,-4(fp)
 800221c:	e0bffc17 	ldw	r2,-16(fp)
 8002220:	1880092e 	bgeu	r3,r2,8002248 <jpeg_write_raw_data+0x154>
    ERREXIT(cinfo, JERR_BUFFER_SIZE);
 8002224:	e0bffd17 	ldw	r2,-12(fp)
 8002228:	10800017 	ldw	r2,0(r2)
 800222c:	00c00544 	movi	r3,21
 8002230:	10c00515 	stw	r3,20(r2)
 8002234:	e0bffd17 	ldw	r2,-12(fp)
 8002238:	10800017 	ldw	r2,0(r2)
 800223c:	10800017 	ldw	r2,0(r2)
 8002240:	e13ffd17 	ldw	r4,-12(fp)
 8002244:	103ee83a 	callr	r2

  /* Directly compress the row. */
  if (! (*cinfo->coef->compress_data) (cinfo, data)) {
 8002248:	e0bffd17 	ldw	r2,-12(fp)
 800224c:	10805417 	ldw	r2,336(r2)
 8002250:	10800117 	ldw	r2,4(r2)
 8002254:	e17ffe17 	ldw	r5,-8(fp)
 8002258:	e13ffd17 	ldw	r4,-12(fp)
 800225c:	103ee83a 	callr	r2
 8002260:	1000021e 	bne	r2,zero,800226c <jpeg_write_raw_data+0x178>
    /* If compressor did not consume the whole row, suspend processing. */
    return 0;
 8002264:	0005883a 	mov	r2,zero
 8002268:	00000706 	br	8002288 <jpeg_write_raw_data+0x194>
  }

  /* OK, we processed one iMCU row. */
  cinfo->next_scanline += lines_per_iMCU_row;
 800226c:	e0bffd17 	ldw	r2,-12(fp)
 8002270:	10c03617 	ldw	r3,216(r2)
 8002274:	e0bffc17 	ldw	r2,-16(fp)
 8002278:	1887883a 	add	r3,r3,r2
 800227c:	e0bffd17 	ldw	r2,-12(fp)
 8002280:	10c03615 	stw	r3,216(r2)
  return lines_per_iMCU_row;
 8002284:	e0bffc17 	ldw	r2,-16(fp)
}
 8002288:	e037883a 	mov	sp,fp
 800228c:	dfc00117 	ldw	ra,4(sp)
 8002290:	df000017 	ldw	fp,0(sp)
 8002294:	dec00204 	addi	sp,sp,8
 8002298:	f800283a 	ret

0800229c <start_iMCU_row>:


LOCAL(void)
start_iMCU_row (j_compress_ptr cinfo)
/* Reset within-iMCU-row counters for a new row */
{
 800229c:	defffd04 	addi	sp,sp,-12
 80022a0:	df000215 	stw	fp,8(sp)
 80022a4:	df000204 	addi	fp,sp,8
 80022a8:	e13fff15 	stw	r4,-4(fp)
  my_coef_ptr coef = (my_coef_ptr) cinfo->coef;
 80022ac:	e0bfff17 	ldw	r2,-4(fp)
 80022b0:	10805417 	ldw	r2,336(r2)
 80022b4:	e0bffe15 	stw	r2,-8(fp)

  /* In an interleaved scan, an MCU row is the same as an iMCU row.
   * In a noninterleaved scan, an iMCU row has v_samp_factor MCU rows.
   * But at the bottom of the image, process only what's left.
   */
  if (cinfo->comps_in_scan > 1) {
 80022b8:	e0bfff17 	ldw	r2,-4(fp)
 80022bc:	10803b17 	ldw	r2,236(r2)
 80022c0:	10800090 	cmplti	r2,r2,2
 80022c4:	1000041e 	bne	r2,zero,80022d8 <start_iMCU_row+0x3c>
    coef->MCU_rows_per_iMCU_row = 1;
 80022c8:	e0bffe17 	ldw	r2,-8(fp)
 80022cc:	00c00044 	movi	r3,1
 80022d0:	10c00515 	stw	r3,20(r2)
 80022d4:	00001106 	br	800231c <start_iMCU_row+0x80>
  } else {
    if (coef->iMCU_row_num < (cinfo->total_iMCU_rows-1))
 80022d8:	e0bffe17 	ldw	r2,-8(fp)
 80022dc:	10c00217 	ldw	r3,8(r2)
 80022e0:	e0bfff17 	ldw	r2,-4(fp)
 80022e4:	10803a17 	ldw	r2,232(r2)
 80022e8:	10bfffc4 	addi	r2,r2,-1
 80022ec:	1880062e 	bgeu	r3,r2,8002308 <start_iMCU_row+0x6c>
      coef->MCU_rows_per_iMCU_row = cinfo->cur_comp_info[0]->v_samp_factor;
 80022f0:	e0bfff17 	ldw	r2,-4(fp)
 80022f4:	10803c17 	ldw	r2,240(r2)
 80022f8:	10c00317 	ldw	r3,12(r2)
 80022fc:	e0bffe17 	ldw	r2,-8(fp)
 8002300:	10c00515 	stw	r3,20(r2)
 8002304:	00000506 	br	800231c <start_iMCU_row+0x80>
    else
      coef->MCU_rows_per_iMCU_row = cinfo->cur_comp_info[0]->last_row_height;
 8002308:	e0bfff17 	ldw	r2,-4(fp)
 800230c:	10803c17 	ldw	r2,240(r2)
 8002310:	10c01217 	ldw	r3,72(r2)
 8002314:	e0bffe17 	ldw	r2,-8(fp)
 8002318:	10c00515 	stw	r3,20(r2)
  }

  coef->mcu_ctr = 0;
 800231c:	e0bffe17 	ldw	r2,-8(fp)
 8002320:	10000315 	stw	zero,12(r2)
  coef->MCU_vert_offset = 0;
 8002324:	e0bffe17 	ldw	r2,-8(fp)
 8002328:	10000415 	stw	zero,16(r2)
}
 800232c:	0001883a 	nop
 8002330:	e037883a 	mov	sp,fp
 8002334:	df000017 	ldw	fp,0(sp)
 8002338:	dec00104 	addi	sp,sp,4
 800233c:	f800283a 	ret

08002340 <start_pass_coef>:
 * Initialize for a processing pass.
 */

METHODDEF(void)
start_pass_coef (j_compress_ptr cinfo, J_BUF_MODE pass_mode)
{
 8002340:	defffb04 	addi	sp,sp,-20
 8002344:	dfc00415 	stw	ra,16(sp)
 8002348:	df000315 	stw	fp,12(sp)
 800234c:	df000304 	addi	fp,sp,12
 8002350:	e13ffe15 	stw	r4,-8(fp)
 8002354:	e17fff15 	stw	r5,-4(fp)
  my_coef_ptr coef = (my_coef_ptr) cinfo->coef;
 8002358:	e0bffe17 	ldw	r2,-8(fp)
 800235c:	10805417 	ldw	r2,336(r2)
 8002360:	e0bffd15 	stw	r2,-12(fp)

  coef->iMCU_row_num = 0;
 8002364:	e0bffd17 	ldw	r2,-12(fp)
 8002368:	10000215 	stw	zero,8(r2)
  start_iMCU_row(cinfo);
 800236c:	e13ffe17 	ldw	r4,-8(fp)
 8002370:	800229c0 	call	800229c <start_iMCU_row>

  switch (pass_mode) {
 8002374:	e0bfff17 	ldw	r2,-4(fp)
 8002378:	10c000a0 	cmpeqi	r3,r2,2
 800237c:	1800251e 	bne	r3,zero,8002414 <start_pass_coef+0xd4>
 8002380:	10c000e0 	cmpeqi	r3,r2,3
 8002384:	1800121e 	bne	r3,zero,80023d0 <start_pass_coef+0x90>
 8002388:	1000331e 	bne	r2,zero,8002458 <start_pass_coef+0x118>
  case JBUF_PASS_THRU:
    if (coef->whole_image[0] != NULL)
 800238c:	e0bffd17 	ldw	r2,-12(fp)
 8002390:	10801017 	ldw	r2,64(r2)
 8002394:	10000926 	beq	r2,zero,80023bc <start_pass_coef+0x7c>
      ERREXIT(cinfo, JERR_BAD_BUFFER_MODE);
 8002398:	e0bffe17 	ldw	r2,-8(fp)
 800239c:	10800017 	ldw	r2,0(r2)
 80023a0:	00c00104 	movi	r3,4
 80023a4:	10c00515 	stw	r3,20(r2)
 80023a8:	e0bffe17 	ldw	r2,-8(fp)
 80023ac:	10800017 	ldw	r2,0(r2)
 80023b0:	10800017 	ldw	r2,0(r2)
 80023b4:	e13ffe17 	ldw	r4,-8(fp)
 80023b8:	103ee83a 	callr	r2
    coef->pub.compress_data = compress_data;
 80023bc:	e0fffd17 	ldw	r3,-12(fp)
 80023c0:	00820034 	movhi	r2,2048
 80023c4:	10892604 	addi	r2,r2,9368
 80023c8:	18800115 	stw	r2,4(r3)
    break;
 80023cc:	00002c06 	br	8002480 <start_pass_coef+0x140>
#ifdef FULL_COEF_BUFFER_SUPPORTED
  case JBUF_SAVE_AND_PASS:
    if (coef->whole_image[0] == NULL)
 80023d0:	e0bffd17 	ldw	r2,-12(fp)
 80023d4:	10801017 	ldw	r2,64(r2)
 80023d8:	1000091e 	bne	r2,zero,8002400 <start_pass_coef+0xc0>
      ERREXIT(cinfo, JERR_BAD_BUFFER_MODE);
 80023dc:	e0bffe17 	ldw	r2,-8(fp)
 80023e0:	10800017 	ldw	r2,0(r2)
 80023e4:	00c00104 	movi	r3,4
 80023e8:	10c00515 	stw	r3,20(r2)
 80023ec:	e0bffe17 	ldw	r2,-8(fp)
 80023f0:	10800017 	ldw	r2,0(r2)
 80023f4:	10800017 	ldw	r2,0(r2)
 80023f8:	e13ffe17 	ldw	r4,-8(fp)
 80023fc:	103ee83a 	callr	r2
    coef->pub.compress_data = compress_first_pass;
 8002400:	e0fffd17 	ldw	r3,-12(fp)
 8002404:	00820034 	movhi	r2,2048
 8002408:	108a2404 	addi	r2,r2,10384
 800240c:	18800115 	stw	r2,4(r3)
    break;
 8002410:	00001b06 	br	8002480 <start_pass_coef+0x140>
  case JBUF_CRANK_DEST:
    if (coef->whole_image[0] == NULL)
 8002414:	e0bffd17 	ldw	r2,-12(fp)
 8002418:	10801017 	ldw	r2,64(r2)
 800241c:	1000091e 	bne	r2,zero,8002444 <start_pass_coef+0x104>
      ERREXIT(cinfo, JERR_BAD_BUFFER_MODE);
 8002420:	e0bffe17 	ldw	r2,-8(fp)
 8002424:	10800017 	ldw	r2,0(r2)
 8002428:	00c00104 	movi	r3,4
 800242c:	10c00515 	stw	r3,20(r2)
 8002430:	e0bffe17 	ldw	r2,-8(fp)
 8002434:	10800017 	ldw	r2,0(r2)
 8002438:	10800017 	ldw	r2,0(r2)
 800243c:	e13ffe17 	ldw	r4,-8(fp)
 8002440:	103ee83a 	callr	r2
    coef->pub.compress_data = compress_output;
 8002444:	e0fffd17 	ldw	r3,-12(fp)
 8002448:	00820034 	movhi	r2,2048
 800244c:	108b2404 	addi	r2,r2,11408
 8002450:	18800115 	stw	r2,4(r3)
    break;
 8002454:	00000a06 	br	8002480 <start_pass_coef+0x140>
#endif
  default:
    ERREXIT(cinfo, JERR_BAD_BUFFER_MODE);
 8002458:	e0bffe17 	ldw	r2,-8(fp)
 800245c:	10800017 	ldw	r2,0(r2)
 8002460:	00c00104 	movi	r3,4
 8002464:	10c00515 	stw	r3,20(r2)
 8002468:	e0bffe17 	ldw	r2,-8(fp)
 800246c:	10800017 	ldw	r2,0(r2)
 8002470:	10800017 	ldw	r2,0(r2)
 8002474:	e13ffe17 	ldw	r4,-8(fp)
 8002478:	103ee83a 	callr	r2
    break;
 800247c:	0001883a 	nop
  }
}
 8002480:	0001883a 	nop
 8002484:	e037883a 	mov	sp,fp
 8002488:	dfc00117 	ldw	ra,4(sp)
 800248c:	df000017 	ldw	fp,0(sp)
 8002490:	dec00204 	addi	sp,sp,8
 8002494:	f800283a 	ret

08002498 <compress_data>:
 * For single pass, this is the same as the components in the scan.
 */

METHODDEF(boolean)
compress_data (j_compress_ptr cinfo, JSAMPIMAGE input_buf)
{
 8002498:	deffec04 	addi	sp,sp,-80
 800249c:	dfc01315 	stw	ra,76(sp)
 80024a0:	df001215 	stw	fp,72(sp)
 80024a4:	df001204 	addi	fp,sp,72
 80024a8:	e13ffe15 	stw	r4,-8(fp)
 80024ac:	e17fff15 	stw	r5,-4(fp)
  my_coef_ptr coef = (my_coef_ptr) cinfo->coef;
 80024b0:	e0bffe17 	ldw	r2,-8(fp)
 80024b4:	10805417 	ldw	r2,336(r2)
 80024b8:	e0bff815 	stw	r2,-32(fp)
  JDIMENSION MCU_col_num;	/* index of current MCU within row */
  JDIMENSION last_MCU_col = cinfo->MCUs_per_row - 1;
 80024bc:	e0bffe17 	ldw	r2,-8(fp)
 80024c0:	10804017 	ldw	r2,256(r2)
 80024c4:	10bfffc4 	addi	r2,r2,-1
 80024c8:	e0bff915 	stw	r2,-28(fp)
  JDIMENSION last_iMCU_row = cinfo->total_iMCU_rows - 1;
 80024cc:	e0bffe17 	ldw	r2,-8(fp)
 80024d0:	10803a17 	ldw	r2,232(r2)
 80024d4:	10bfffc4 	addi	r2,r2,-1
 80024d8:	e0bffa15 	stw	r2,-24(fp)
  int blkn, bi, ci, yindex, yoffset, blockcnt;
  JDIMENSION ypos, xpos;
  jpeg_component_info *compptr;

  /* Loop to write as much as one whole iMCU row */
  for (yoffset = coef->MCU_vert_offset; yoffset < coef->MCU_rows_per_iMCU_row;
 80024dc:	e0bff817 	ldw	r2,-32(fp)
 80024e0:	10800417 	ldw	r2,16(r2)
 80024e4:	e0bff615 	stw	r2,-40(fp)
 80024e8:	0000d806 	br	800284c <compress_data+0x3b4>
       yoffset++) {
    for (MCU_col_num = coef->mcu_ctr; MCU_col_num <= last_MCU_col;
 80024ec:	e0bff817 	ldw	r2,-32(fp)
 80024f0:	10800317 	ldw	r2,12(r2)
 80024f4:	e0bff115 	stw	r2,-60(fp)
 80024f8:	0000cc06 	br	800282c <compress_data+0x394>
       * specially.  The data in them does not matter for image reconstruction,
       * so we fill them with values that will encode to the smallest amount of
       * data, viz: all zeroes in the AC entries, DC entries equal to previous
       * block's DC value.  (Thanks to Thomas Kinsman for this idea.)
       */
      blkn = 0;
 80024fc:	e03ff215 	stw	zero,-56(fp)
      for (ci = 0; ci < cinfo->comps_in_scan; ci++) {
 8002500:	e03ff415 	stw	zero,-48(fp)
 8002504:	0000b106 	br	80027cc <compress_data+0x334>
	compptr = cinfo->cur_comp_info[ci];
 8002508:	e0fffe17 	ldw	r3,-8(fp)
 800250c:	e0bff417 	ldw	r2,-48(fp)
 8002510:	10800f04 	addi	r2,r2,60
 8002514:	1085883a 	add	r2,r2,r2
 8002518:	1085883a 	add	r2,r2,r2
 800251c:	1885883a 	add	r2,r3,r2
 8002520:	10800017 	ldw	r2,0(r2)
 8002524:	e0bffb15 	stw	r2,-20(fp)
	blockcnt = (MCU_col_num < last_MCU_col) ? compptr->MCU_width
						: compptr->last_col_width;
 8002528:	e0fff117 	ldw	r3,-60(fp)
 800252c:	e0bff917 	ldw	r2,-28(fp)
 8002530:	1880032e 	bgeu	r3,r2,8002540 <compress_data+0xa8>
 8002534:	e0bffb17 	ldw	r2,-20(fp)
 8002538:	10800d17 	ldw	r2,52(r2)
 800253c:	00000206 	br	8002548 <compress_data+0xb0>
 8002540:	e0bffb17 	ldw	r2,-20(fp)
 8002544:	10801117 	ldw	r2,68(r2)
       * block's DC value.  (Thanks to Thomas Kinsman for this idea.)
       */
      blkn = 0;
      for (ci = 0; ci < cinfo->comps_in_scan; ci++) {
	compptr = cinfo->cur_comp_info[ci];
	blockcnt = (MCU_col_num < last_MCU_col) ? compptr->MCU_width
 8002548:	e0bffc15 	stw	r2,-16(fp)
						: compptr->last_col_width;
	xpos = MCU_col_num * compptr->MCU_sample_width;
 800254c:	e0bffb17 	ldw	r2,-20(fp)
 8002550:	10801017 	ldw	r2,64(r2)
 8002554:	1007883a 	mov	r3,r2
 8002558:	e0bff117 	ldw	r2,-60(fp)
 800255c:	1885383a 	mul	r2,r3,r2
 8002560:	e0bffd15 	stw	r2,-12(fp)
	ypos = yoffset * DCTSIZE; /* ypos == (yoffset+yindex) * DCTSIZE */
 8002564:	e0bff617 	ldw	r2,-40(fp)
 8002568:	100490fa 	slli	r2,r2,3
 800256c:	e0bff715 	stw	r2,-36(fp)
	for (yindex = 0; yindex < compptr->MCU_height; yindex++) {
 8002570:	e03ff515 	stw	zero,-44(fp)
 8002574:	00008e06 	br	80027b0 <compress_data+0x318>
	  if (coef->iMCU_row_num < last_iMCU_row ||
 8002578:	e0bff817 	ldw	r2,-32(fp)
 800257c:	10c00217 	ldw	r3,8(r2)
 8002580:	e0bffa17 	ldw	r2,-24(fp)
 8002584:	18800636 	bltu	r3,r2,80025a0 <compress_data+0x108>
	      yoffset+yindex < compptr->last_row_height) {
 8002588:	e0fff617 	ldw	r3,-40(fp)
 800258c:	e0bff517 	ldw	r2,-44(fp)
 8002590:	1887883a 	add	r3,r3,r2
 8002594:	e0bffb17 	ldw	r2,-20(fp)
 8002598:	10801217 	ldw	r2,72(r2)
	blockcnt = (MCU_col_num < last_MCU_col) ? compptr->MCU_width
						: compptr->last_col_width;
	xpos = MCU_col_num * compptr->MCU_sample_width;
	ypos = yoffset * DCTSIZE; /* ypos == (yoffset+yindex) * DCTSIZE */
	for (yindex = 0; yindex < compptr->MCU_height; yindex++) {
	  if (coef->iMCU_row_num < last_iMCU_row ||
 800259c:	1880500e 	bge	r3,r2,80026e0 <compress_data+0x248>
	      yoffset+yindex < compptr->last_row_height) {
	    (*cinfo->fdct->forward_DCT) (cinfo, compptr,
 80025a0:	e0bffe17 	ldw	r2,-8(fp)
 80025a4:	10805817 	ldw	r2,352(r2)
 80025a8:	10c00117 	ldw	r3,4(r2)
					 input_buf[ci], coef->MCU_buffer[blkn],
 80025ac:	e0bff417 	ldw	r2,-48(fp)
 80025b0:	1085883a 	add	r2,r2,r2
 80025b4:	1085883a 	add	r2,r2,r2
 80025b8:	1009883a 	mov	r4,r2
 80025bc:	e0bfff17 	ldw	r2,-4(fp)
 80025c0:	1105883a 	add	r2,r2,r4
	xpos = MCU_col_num * compptr->MCU_sample_width;
	ypos = yoffset * DCTSIZE; /* ypos == (yoffset+yindex) * DCTSIZE */
	for (yindex = 0; yindex < compptr->MCU_height; yindex++) {
	  if (coef->iMCU_row_num < last_iMCU_row ||
	      yoffset+yindex < compptr->last_row_height) {
	    (*cinfo->fdct->forward_DCT) (cinfo, compptr,
 80025c4:	11400017 	ldw	r5,0(r2)
 80025c8:	e13ff817 	ldw	r4,-32(fp)
 80025cc:	e0bff217 	ldw	r2,-56(fp)
 80025d0:	10800184 	addi	r2,r2,6
 80025d4:	1085883a 	add	r2,r2,r2
 80025d8:	1085883a 	add	r2,r2,r2
 80025dc:	2085883a 	add	r2,r4,r2
 80025e0:	11000017 	ldw	r4,0(r2)
 80025e4:	e0bffc17 	ldw	r2,-16(fp)
 80025e8:	d8800215 	stw	r2,8(sp)
 80025ec:	e0bffd17 	ldw	r2,-12(fp)
 80025f0:	d8800115 	stw	r2,4(sp)
 80025f4:	e0bff717 	ldw	r2,-36(fp)
 80025f8:	d8800015 	stw	r2,0(sp)
 80025fc:	200f883a 	mov	r7,r4
 8002600:	280d883a 	mov	r6,r5
 8002604:	e17ffb17 	ldw	r5,-20(fp)
 8002608:	e13ffe17 	ldw	r4,-8(fp)
 800260c:	183ee83a 	callr	r3
					 input_buf[ci], coef->MCU_buffer[blkn],
					 ypos, xpos, (JDIMENSION) blockcnt);
	    if (blockcnt < compptr->MCU_width) {
 8002610:	e0bffb17 	ldw	r2,-20(fp)
 8002614:	10800d17 	ldw	r2,52(r2)
 8002618:	e0fffc17 	ldw	r3,-16(fp)
 800261c:	1880590e 	bge	r3,r2,8002784 <compress_data+0x2ec>
	      /* Create some dummy blocks at the right edge of the image. */
	      jzero_far((void FAR *) coef->MCU_buffer[blkn + blockcnt],
 8002620:	e0fff217 	ldw	r3,-56(fp)
 8002624:	e0bffc17 	ldw	r2,-16(fp)
 8002628:	1885883a 	add	r2,r3,r2
 800262c:	e0fff817 	ldw	r3,-32(fp)
 8002630:	10800184 	addi	r2,r2,6
 8002634:	1085883a 	add	r2,r2,r2
 8002638:	1085883a 	add	r2,r2,r2
 800263c:	1885883a 	add	r2,r3,r2
 8002640:	11000017 	ldw	r4,0(r2)
			(compptr->MCU_width - blockcnt) * SIZEOF(JBLOCK));
 8002644:	e0bffb17 	ldw	r2,-20(fp)
 8002648:	10c00d17 	ldw	r3,52(r2)
 800264c:	e0bffc17 	ldw	r2,-16(fp)
 8002650:	1885c83a 	sub	r2,r3,r2
	    (*cinfo->fdct->forward_DCT) (cinfo, compptr,
					 input_buf[ci], coef->MCU_buffer[blkn],
					 ypos, xpos, (JDIMENSION) blockcnt);
	    if (blockcnt < compptr->MCU_width) {
	      /* Create some dummy blocks at the right edge of the image. */
	      jzero_far((void FAR *) coef->MCU_buffer[blkn + blockcnt],
 8002654:	100491fa 	slli	r2,r2,7
 8002658:	100b883a 	mov	r5,r2
 800265c:	80296380 	call	8029638 <jzero_far>
			(compptr->MCU_width - blockcnt) * SIZEOF(JBLOCK));
	      for (bi = blockcnt; bi < compptr->MCU_width; bi++) {
 8002660:	e0bffc17 	ldw	r2,-16(fp)
 8002664:	e0bff315 	stw	r2,-52(fp)
 8002668:	00001806 	br	80026cc <compress_data+0x234>
		coef->MCU_buffer[blkn+bi][0][0] = coef->MCU_buffer[blkn+bi-1][0][0];
 800266c:	e0fff217 	ldw	r3,-56(fp)
 8002670:	e0bff317 	ldw	r2,-52(fp)
 8002674:	1885883a 	add	r2,r3,r2
 8002678:	e0fff817 	ldw	r3,-32(fp)
 800267c:	10800184 	addi	r2,r2,6
 8002680:	1085883a 	add	r2,r2,r2
 8002684:	1085883a 	add	r2,r2,r2
 8002688:	1885883a 	add	r2,r3,r2
 800268c:	10c00017 	ldw	r3,0(r2)
 8002690:	e13ff217 	ldw	r4,-56(fp)
 8002694:	e0bff317 	ldw	r2,-52(fp)
 8002698:	2085883a 	add	r2,r4,r2
 800269c:	10bfffc4 	addi	r2,r2,-1
 80026a0:	e13ff817 	ldw	r4,-32(fp)
 80026a4:	10800184 	addi	r2,r2,6
 80026a8:	1085883a 	add	r2,r2,r2
 80026ac:	1085883a 	add	r2,r2,r2
 80026b0:	2085883a 	add	r2,r4,r2
 80026b4:	10800017 	ldw	r2,0(r2)
 80026b8:	1080000b 	ldhu	r2,0(r2)
 80026bc:	1880000d 	sth	r2,0(r3)
					 ypos, xpos, (JDIMENSION) blockcnt);
	    if (blockcnt < compptr->MCU_width) {
	      /* Create some dummy blocks at the right edge of the image. */
	      jzero_far((void FAR *) coef->MCU_buffer[blkn + blockcnt],
			(compptr->MCU_width - blockcnt) * SIZEOF(JBLOCK));
	      for (bi = blockcnt; bi < compptr->MCU_width; bi++) {
 80026c0:	e0bff317 	ldw	r2,-52(fp)
 80026c4:	10800044 	addi	r2,r2,1
 80026c8:	e0bff315 	stw	r2,-52(fp)
 80026cc:	e0bffb17 	ldw	r2,-20(fp)
 80026d0:	10800d17 	ldw	r2,52(r2)
 80026d4:	e0fff317 	ldw	r3,-52(fp)
 80026d8:	18bfe416 	blt	r3,r2,800266c <compress_data+0x1d4>
	  if (coef->iMCU_row_num < last_iMCU_row ||
	      yoffset+yindex < compptr->last_row_height) {
	    (*cinfo->fdct->forward_DCT) (cinfo, compptr,
					 input_buf[ci], coef->MCU_buffer[blkn],
					 ypos, xpos, (JDIMENSION) blockcnt);
	    if (blockcnt < compptr->MCU_width) {
 80026dc:	00002906 	br	8002784 <compress_data+0x2ec>
		coef->MCU_buffer[blkn+bi][0][0] = coef->MCU_buffer[blkn+bi-1][0][0];
	      }
	    }
	  } else {
	    /* Create a row of dummy blocks at the bottom of the image. */
	    jzero_far((void FAR *) coef->MCU_buffer[blkn],
 80026e0:	e0fff817 	ldw	r3,-32(fp)
 80026e4:	e0bff217 	ldw	r2,-56(fp)
 80026e8:	10800184 	addi	r2,r2,6
 80026ec:	1085883a 	add	r2,r2,r2
 80026f0:	1085883a 	add	r2,r2,r2
 80026f4:	1885883a 	add	r2,r3,r2
 80026f8:	10c00017 	ldw	r3,0(r2)
		      compptr->MCU_width * SIZEOF(JBLOCK));
 80026fc:	e0bffb17 	ldw	r2,-20(fp)
 8002700:	10800d17 	ldw	r2,52(r2)
		coef->MCU_buffer[blkn+bi][0][0] = coef->MCU_buffer[blkn+bi-1][0][0];
	      }
	    }
	  } else {
	    /* Create a row of dummy blocks at the bottom of the image. */
	    jzero_far((void FAR *) coef->MCU_buffer[blkn],
 8002704:	100491fa 	slli	r2,r2,7
 8002708:	100b883a 	mov	r5,r2
 800270c:	1809883a 	mov	r4,r3
 8002710:	80296380 	call	8029638 <jzero_far>
		      compptr->MCU_width * SIZEOF(JBLOCK));
	    for (bi = 0; bi < compptr->MCU_width; bi++) {
 8002714:	e03ff315 	stw	zero,-52(fp)
 8002718:	00001606 	br	8002774 <compress_data+0x2dc>
	      coef->MCU_buffer[blkn+bi][0][0] = coef->MCU_buffer[blkn-1][0][0];
 800271c:	e0fff217 	ldw	r3,-56(fp)
 8002720:	e0bff317 	ldw	r2,-52(fp)
 8002724:	1885883a 	add	r2,r3,r2
 8002728:	e0fff817 	ldw	r3,-32(fp)
 800272c:	10800184 	addi	r2,r2,6
 8002730:	1085883a 	add	r2,r2,r2
 8002734:	1085883a 	add	r2,r2,r2
 8002738:	1885883a 	add	r2,r3,r2
 800273c:	10c00017 	ldw	r3,0(r2)
 8002740:	e0bff217 	ldw	r2,-56(fp)
 8002744:	10bfffc4 	addi	r2,r2,-1
 8002748:	e13ff817 	ldw	r4,-32(fp)
 800274c:	10800184 	addi	r2,r2,6
 8002750:	1085883a 	add	r2,r2,r2
 8002754:	1085883a 	add	r2,r2,r2
 8002758:	2085883a 	add	r2,r4,r2
 800275c:	10800017 	ldw	r2,0(r2)
 8002760:	1080000b 	ldhu	r2,0(r2)
 8002764:	1880000d 	sth	r2,0(r3)
	    }
	  } else {
	    /* Create a row of dummy blocks at the bottom of the image. */
	    jzero_far((void FAR *) coef->MCU_buffer[blkn],
		      compptr->MCU_width * SIZEOF(JBLOCK));
	    for (bi = 0; bi < compptr->MCU_width; bi++) {
 8002768:	e0bff317 	ldw	r2,-52(fp)
 800276c:	10800044 	addi	r2,r2,1
 8002770:	e0bff315 	stw	r2,-52(fp)
 8002774:	e0bffb17 	ldw	r2,-20(fp)
 8002778:	10800d17 	ldw	r2,52(r2)
 800277c:	e0fff317 	ldw	r3,-52(fp)
 8002780:	18bfe616 	blt	r3,r2,800271c <compress_data+0x284>
	      coef->MCU_buffer[blkn+bi][0][0] = coef->MCU_buffer[blkn-1][0][0];
	    }
	  }
	  blkn += compptr->MCU_width;
 8002784:	e0bffb17 	ldw	r2,-20(fp)
 8002788:	10800d17 	ldw	r2,52(r2)
 800278c:	e0fff217 	ldw	r3,-56(fp)
 8002790:	1885883a 	add	r2,r3,r2
 8002794:	e0bff215 	stw	r2,-56(fp)
	  ypos += DCTSIZE;
 8002798:	e0bff717 	ldw	r2,-36(fp)
 800279c:	10800204 	addi	r2,r2,8
 80027a0:	e0bff715 	stw	r2,-36(fp)
	compptr = cinfo->cur_comp_info[ci];
	blockcnt = (MCU_col_num < last_MCU_col) ? compptr->MCU_width
						: compptr->last_col_width;
	xpos = MCU_col_num * compptr->MCU_sample_width;
	ypos = yoffset * DCTSIZE; /* ypos == (yoffset+yindex) * DCTSIZE */
	for (yindex = 0; yindex < compptr->MCU_height; yindex++) {
 80027a4:	e0bff517 	ldw	r2,-44(fp)
 80027a8:	10800044 	addi	r2,r2,1
 80027ac:	e0bff515 	stw	r2,-44(fp)
 80027b0:	e0bffb17 	ldw	r2,-20(fp)
 80027b4:	10800e17 	ldw	r2,56(r2)
 80027b8:	e0fff517 	ldw	r3,-44(fp)
 80027bc:	18bf6e16 	blt	r3,r2,8002578 <compress_data+0xe0>
       * so we fill them with values that will encode to the smallest amount of
       * data, viz: all zeroes in the AC entries, DC entries equal to previous
       * block's DC value.  (Thanks to Thomas Kinsman for this idea.)
       */
      blkn = 0;
      for (ci = 0; ci < cinfo->comps_in_scan; ci++) {
 80027c0:	e0bff417 	ldw	r2,-48(fp)
 80027c4:	10800044 	addi	r2,r2,1
 80027c8:	e0bff415 	stw	r2,-48(fp)
 80027cc:	e0bffe17 	ldw	r2,-8(fp)
 80027d0:	10803b17 	ldw	r2,236(r2)
 80027d4:	e0fff417 	ldw	r3,-48(fp)
 80027d8:	18bf4b16 	blt	r3,r2,8002508 <compress_data+0x70>
	}
      }
      /* Try to write the MCU.  In event of a suspension failure, we will
       * re-DCT the MCU on restart (a bit inefficient, could be fixed...)
       */
      if (! (*cinfo->entropy->encode_mcu) (cinfo, coef->MCU_buffer)) {
 80027dc:	e0bffe17 	ldw	r2,-8(fp)
 80027e0:	10805917 	ldw	r2,356(r2)
 80027e4:	10800117 	ldw	r2,4(r2)
 80027e8:	e0fff817 	ldw	r3,-32(fp)
 80027ec:	18c00604 	addi	r3,r3,24
 80027f0:	180b883a 	mov	r5,r3
 80027f4:	e13ffe17 	ldw	r4,-8(fp)
 80027f8:	103ee83a 	callr	r2
 80027fc:	1000081e 	bne	r2,zero,8002820 <compress_data+0x388>
	/* Suspension forced; update state counters and exit */
	coef->MCU_vert_offset = yoffset;
 8002800:	e0bff817 	ldw	r2,-32(fp)
 8002804:	e0fff617 	ldw	r3,-40(fp)
 8002808:	10c00415 	stw	r3,16(r2)
	coef->mcu_ctr = MCU_col_num;
 800280c:	e0bff817 	ldw	r2,-32(fp)
 8002810:	e0fff117 	ldw	r3,-60(fp)
 8002814:	10c00315 	stw	r3,12(r2)
	return FALSE;
 8002818:	0005883a 	mov	r2,zero
 800281c:	00001706 	br	800287c <compress_data+0x3e4>

  /* Loop to write as much as one whole iMCU row */
  for (yoffset = coef->MCU_vert_offset; yoffset < coef->MCU_rows_per_iMCU_row;
       yoffset++) {
    for (MCU_col_num = coef->mcu_ctr; MCU_col_num <= last_MCU_col;
	 MCU_col_num++) {
 8002820:	e0bff117 	ldw	r2,-60(fp)
 8002824:	10800044 	addi	r2,r2,1
 8002828:	e0bff115 	stw	r2,-60(fp)
  jpeg_component_info *compptr;

  /* Loop to write as much as one whole iMCU row */
  for (yoffset = coef->MCU_vert_offset; yoffset < coef->MCU_rows_per_iMCU_row;
       yoffset++) {
    for (MCU_col_num = coef->mcu_ctr; MCU_col_num <= last_MCU_col;
 800282c:	e0bff117 	ldw	r2,-60(fp)
 8002830:	e0fff917 	ldw	r3,-28(fp)
 8002834:	18bf312e 	bgeu	r3,r2,80024fc <compress_data+0x64>
	coef->mcu_ctr = MCU_col_num;
	return FALSE;
      }
    }
    /* Completed an MCU row, but perhaps not an iMCU row */
    coef->mcu_ctr = 0;
 8002838:	e0bff817 	ldw	r2,-32(fp)
 800283c:	10000315 	stw	zero,12(r2)
  JDIMENSION ypos, xpos;
  jpeg_component_info *compptr;

  /* Loop to write as much as one whole iMCU row */
  for (yoffset = coef->MCU_vert_offset; yoffset < coef->MCU_rows_per_iMCU_row;
       yoffset++) {
 8002840:	e0bff617 	ldw	r2,-40(fp)
 8002844:	10800044 	addi	r2,r2,1
 8002848:	e0bff615 	stw	r2,-40(fp)
  int blkn, bi, ci, yindex, yoffset, blockcnt;
  JDIMENSION ypos, xpos;
  jpeg_component_info *compptr;

  /* Loop to write as much as one whole iMCU row */
  for (yoffset = coef->MCU_vert_offset; yoffset < coef->MCU_rows_per_iMCU_row;
 800284c:	e0bff817 	ldw	r2,-32(fp)
 8002850:	10800517 	ldw	r2,20(r2)
 8002854:	e0fff617 	ldw	r3,-40(fp)
 8002858:	18bf2416 	blt	r3,r2,80024ec <compress_data+0x54>
    }
    /* Completed an MCU row, but perhaps not an iMCU row */
    coef->mcu_ctr = 0;
  }
  /* Completed the iMCU row, advance counters for next one */
  coef->iMCU_row_num++;
 800285c:	e0bff817 	ldw	r2,-32(fp)
 8002860:	10800217 	ldw	r2,8(r2)
 8002864:	10c00044 	addi	r3,r2,1
 8002868:	e0bff817 	ldw	r2,-32(fp)
 800286c:	10c00215 	stw	r3,8(r2)
  start_iMCU_row(cinfo);
 8002870:	e13ffe17 	ldw	r4,-8(fp)
 8002874:	800229c0 	call	800229c <start_iMCU_row>
  return TRUE;
 8002878:	00800044 	movi	r2,1
}
 800287c:	e037883a 	mov	sp,fp
 8002880:	dfc00117 	ldw	ra,4(sp)
 8002884:	df000017 	ldw	fp,0(sp)
 8002888:	dec00204 	addi	sp,sp,8
 800288c:	f800283a 	ret

08002890 <compress_first_pass>:
 * at the scan-dependent variables (MCU dimensions, etc).
 */

METHODDEF(boolean)
compress_first_pass (j_compress_ptr cinfo, JSAMPIMAGE input_buf)
{
 8002890:	deffe904 	addi	sp,sp,-92
 8002894:	dfc01615 	stw	ra,88(sp)
 8002898:	df001515 	stw	fp,84(sp)
 800289c:	df001504 	addi	fp,sp,84
 80028a0:	e13ffe15 	stw	r4,-8(fp)
 80028a4:	e17fff15 	stw	r5,-4(fp)
  my_coef_ptr coef = (my_coef_ptr) cinfo->coef;
 80028a8:	e0bffe17 	ldw	r2,-8(fp)
 80028ac:	10805417 	ldw	r2,336(r2)
 80028b0:	e0bff715 	stw	r2,-36(fp)
  JDIMENSION last_iMCU_row = cinfo->total_iMCU_rows - 1;
 80028b4:	e0bffe17 	ldw	r2,-8(fp)
 80028b8:	10803a17 	ldw	r2,232(r2)
 80028bc:	10bfffc4 	addi	r2,r2,-1
 80028c0:	e0bff815 	stw	r2,-32(fp)
  JCOEF lastDC;
  jpeg_component_info *compptr;
  JBLOCKARRAY buffer;
  JBLOCKROW thisblockrow, lastblockrow;

  for (ci = 0, compptr = cinfo->comp_info; ci < cinfo->num_components;
 80028c4:	e03ff015 	stw	zero,-64(fp)
 80028c8:	e0bffe17 	ldw	r2,-8(fp)
 80028cc:	10800f17 	ldw	r2,60(r2)
 80028d0:	e0bff415 	stw	r2,-48(fp)
 80028d4:	0000e206 	br	8002c60 <compress_first_pass+0x3d0>
       ci++, compptr++) {
    /* Align the virtual buffer for this component. */
    buffer = (*cinfo->mem->access_virt_barray)
 80028d8:	e0bffe17 	ldw	r2,-8(fp)
 80028dc:	10800117 	ldw	r2,4(r2)
 80028e0:	10c00817 	ldw	r3,32(r2)
 80028e4:	e13ff717 	ldw	r4,-36(fp)
 80028e8:	e0bff017 	ldw	r2,-64(fp)
 80028ec:	10800404 	addi	r2,r2,16
 80028f0:	1085883a 	add	r2,r2,r2
 80028f4:	1085883a 	add	r2,r2,r2
 80028f8:	2085883a 	add	r2,r4,r2
 80028fc:	11400017 	ldw	r5,0(r2)
      ((j_common_ptr) cinfo, coef->whole_image[ci],
       coef->iMCU_row_num * compptr->v_samp_factor,
 8002900:	e0bff717 	ldw	r2,-36(fp)
 8002904:	10800217 	ldw	r2,8(r2)
 8002908:	e13ff417 	ldw	r4,-48(fp)
 800290c:	21000317 	ldw	r4,12(r4)
  JBLOCKROW thisblockrow, lastblockrow;

  for (ci = 0, compptr = cinfo->comp_info; ci < cinfo->num_components;
       ci++, compptr++) {
    /* Align the virtual buffer for this component. */
    buffer = (*cinfo->mem->access_virt_barray)
 8002910:	1109383a 	mul	r4,r2,r4
      ((j_common_ptr) cinfo, coef->whole_image[ci],
       coef->iMCU_row_num * compptr->v_samp_factor,
       (JDIMENSION) compptr->v_samp_factor, TRUE);
 8002914:	e0bff417 	ldw	r2,-48(fp)
 8002918:	10800317 	ldw	r2,12(r2)
  JBLOCKROW thisblockrow, lastblockrow;

  for (ci = 0, compptr = cinfo->comp_info; ci < cinfo->num_components;
       ci++, compptr++) {
    /* Align the virtual buffer for this component. */
    buffer = (*cinfo->mem->access_virt_barray)
 800291c:	100d883a 	mov	r6,r2
 8002920:	00800044 	movi	r2,1
 8002924:	d8800015 	stw	r2,0(sp)
 8002928:	300f883a 	mov	r7,r6
 800292c:	200d883a 	mov	r6,r4
 8002930:	e13ffe17 	ldw	r4,-8(fp)
 8002934:	183ee83a 	callr	r3
 8002938:	e0bff915 	stw	r2,-28(fp)
      ((j_common_ptr) cinfo, coef->whole_image[ci],
       coef->iMCU_row_num * compptr->v_samp_factor,
       (JDIMENSION) compptr->v_samp_factor, TRUE);
    /* Count non-dummy DCT block rows in this iMCU row. */
    if (coef->iMCU_row_num < last_iMCU_row)
 800293c:	e0bff717 	ldw	r2,-36(fp)
 8002940:	10c00217 	ldw	r3,8(r2)
 8002944:	e0bff817 	ldw	r2,-32(fp)
 8002948:	1880042e 	bgeu	r3,r2,800295c <compress_first_pass+0xcc>
      block_rows = compptr->v_samp_factor;
 800294c:	e0bff417 	ldw	r2,-48(fp)
 8002950:	10800317 	ldw	r2,12(r2)
 8002954:	e0bff215 	stw	r2,-56(fp)
 8002958:	00000d06 	br	8002990 <compress_first_pass+0x100>
    else {
      /* NB: can't use last_row_height here, since may not be set! */
      block_rows = (int) (compptr->height_in_blocks % compptr->v_samp_factor);
 800295c:	e0bff417 	ldw	r2,-48(fp)
 8002960:	10c00817 	ldw	r3,32(r2)
 8002964:	e0bff417 	ldw	r2,-48(fp)
 8002968:	10800317 	ldw	r2,12(r2)
 800296c:	100b883a 	mov	r5,r2
 8002970:	1809883a 	mov	r4,r3
 8002974:	802cd600 	call	802cd60 <__umodsi3>
 8002978:	e0bff215 	stw	r2,-56(fp)
      if (block_rows == 0) block_rows = compptr->v_samp_factor;
 800297c:	e0bff217 	ldw	r2,-56(fp)
 8002980:	1000031e 	bne	r2,zero,8002990 <compress_first_pass+0x100>
 8002984:	e0bff417 	ldw	r2,-48(fp)
 8002988:	10800317 	ldw	r2,12(r2)
 800298c:	e0bff215 	stw	r2,-56(fp)
    }
    blocks_across = compptr->width_in_blocks;
 8002990:	e0bff417 	ldw	r2,-48(fp)
 8002994:	10800717 	ldw	r2,28(r2)
 8002998:	e0bffa15 	stw	r2,-24(fp)
    h_samp_factor = compptr->h_samp_factor;
 800299c:	e0bff417 	ldw	r2,-48(fp)
 80029a0:	10800217 	ldw	r2,8(r2)
 80029a4:	e0bffb15 	stw	r2,-20(fp)
    /* Count number of dummy blocks to be added at the right margin. */
    ndummy = (int) (blocks_across % h_samp_factor);
 80029a8:	e0fffb17 	ldw	r3,-20(fp)
 80029ac:	e0bffa17 	ldw	r2,-24(fp)
 80029b0:	180b883a 	mov	r5,r3
 80029b4:	1009883a 	mov	r4,r2
 80029b8:	802cd600 	call	802cd60 <__umodsi3>
 80029bc:	e0bff315 	stw	r2,-52(fp)
    if (ndummy > 0)
 80029c0:	e0bff317 	ldw	r2,-52(fp)
 80029c4:	0080040e 	bge	zero,r2,80029d8 <compress_first_pass+0x148>
      ndummy = h_samp_factor - ndummy;
 80029c8:	e0fffb17 	ldw	r3,-20(fp)
 80029cc:	e0bff317 	ldw	r2,-52(fp)
 80029d0:	1885c83a 	sub	r2,r3,r2
 80029d4:	e0bff315 	stw	r2,-52(fp)
    /* Perform DCT for all non-dummy blocks in this iMCU row.  Each call
     * on forward_DCT processes a complete horizontal row of DCT blocks.
     */
    for (block_row = 0; block_row < block_rows; block_row++) {
 80029d8:	e03ff115 	stw	zero,-60(fp)
 80029dc:	00003f06 	br	8002adc <compress_first_pass+0x24c>
      thisblockrow = buffer[block_row];
 80029e0:	e0bff117 	ldw	r2,-60(fp)
 80029e4:	1085883a 	add	r2,r2,r2
 80029e8:	1085883a 	add	r2,r2,r2
 80029ec:	1007883a 	mov	r3,r2
 80029f0:	e0bff917 	ldw	r2,-28(fp)
 80029f4:	10c5883a 	add	r2,r2,r3
 80029f8:	10800017 	ldw	r2,0(r2)
 80029fc:	e0bff515 	stw	r2,-44(fp)
      (*cinfo->fdct->forward_DCT) (cinfo, compptr,
 8002a00:	e0bffe17 	ldw	r2,-8(fp)
 8002a04:	10805817 	ldw	r2,352(r2)
 8002a08:	10c00117 	ldw	r3,4(r2)
				   input_buf[ci], thisblockrow,
 8002a0c:	e0bff017 	ldw	r2,-64(fp)
 8002a10:	1085883a 	add	r2,r2,r2
 8002a14:	1085883a 	add	r2,r2,r2
 8002a18:	1009883a 	mov	r4,r2
 8002a1c:	e0bfff17 	ldw	r2,-4(fp)
 8002a20:	1105883a 	add	r2,r2,r4
    /* Perform DCT for all non-dummy blocks in this iMCU row.  Each call
     * on forward_DCT processes a complete horizontal row of DCT blocks.
     */
    for (block_row = 0; block_row < block_rows; block_row++) {
      thisblockrow = buffer[block_row];
      (*cinfo->fdct->forward_DCT) (cinfo, compptr,
 8002a24:	11000017 	ldw	r4,0(r2)
				   input_buf[ci], thisblockrow,
				   (JDIMENSION) (block_row * DCTSIZE),
 8002a28:	e0bff117 	ldw	r2,-60(fp)
 8002a2c:	100490fa 	slli	r2,r2,3
    /* Perform DCT for all non-dummy blocks in this iMCU row.  Each call
     * on forward_DCT processes a complete horizontal row of DCT blocks.
     */
    for (block_row = 0; block_row < block_rows; block_row++) {
      thisblockrow = buffer[block_row];
      (*cinfo->fdct->forward_DCT) (cinfo, compptr,
 8002a30:	100b883a 	mov	r5,r2
 8002a34:	e0bffa17 	ldw	r2,-24(fp)
 8002a38:	d8800215 	stw	r2,8(sp)
 8002a3c:	d8000115 	stw	zero,4(sp)
 8002a40:	d9400015 	stw	r5,0(sp)
 8002a44:	e1fff517 	ldw	r7,-44(fp)
 8002a48:	200d883a 	mov	r6,r4
 8002a4c:	e17ff417 	ldw	r5,-48(fp)
 8002a50:	e13ffe17 	ldw	r4,-8(fp)
 8002a54:	183ee83a 	callr	r3
				   input_buf[ci], thisblockrow,
				   (JDIMENSION) (block_row * DCTSIZE),
				   (JDIMENSION) 0, blocks_across);
      if (ndummy > 0) {
 8002a58:	e0bff317 	ldw	r2,-52(fp)
 8002a5c:	00801c0e 	bge	zero,r2,8002ad0 <compress_first_pass+0x240>
	/* Create dummy blocks at the right edge of the image. */
	thisblockrow += blocks_across; /* => first dummy block */
 8002a60:	e0bffa17 	ldw	r2,-24(fp)
 8002a64:	100491fa 	slli	r2,r2,7
 8002a68:	e0fff517 	ldw	r3,-44(fp)
 8002a6c:	1885883a 	add	r2,r3,r2
 8002a70:	e0bff515 	stw	r2,-44(fp)
	jzero_far((void FAR *) thisblockrow, ndummy * SIZEOF(JBLOCK));
 8002a74:	e0bff317 	ldw	r2,-52(fp)
 8002a78:	100491fa 	slli	r2,r2,7
 8002a7c:	100b883a 	mov	r5,r2
 8002a80:	e13ff517 	ldw	r4,-44(fp)
 8002a84:	80296380 	call	8029638 <jzero_far>
	lastDC = thisblockrow[-1][0];
 8002a88:	e0bff517 	ldw	r2,-44(fp)
 8002a8c:	10bfe004 	addi	r2,r2,-128
 8002a90:	1080000b 	ldhu	r2,0(r2)
 8002a94:	e0bffc0d 	sth	r2,-16(fp)
	for (bi = 0; bi < ndummy; bi++) {
 8002a98:	e03fef15 	stw	zero,-68(fp)
 8002a9c:	00000906 	br	8002ac4 <compress_first_pass+0x234>
	  thisblockrow[bi][0] = lastDC;
 8002aa0:	e0bfef17 	ldw	r2,-68(fp)
 8002aa4:	100491fa 	slli	r2,r2,7
 8002aa8:	e0fff517 	ldw	r3,-44(fp)
 8002aac:	1885883a 	add	r2,r3,r2
 8002ab0:	e0fffc0b 	ldhu	r3,-16(fp)
 8002ab4:	10c0000d 	sth	r3,0(r2)
      if (ndummy > 0) {
	/* Create dummy blocks at the right edge of the image. */
	thisblockrow += blocks_across; /* => first dummy block */
	jzero_far((void FAR *) thisblockrow, ndummy * SIZEOF(JBLOCK));
	lastDC = thisblockrow[-1][0];
	for (bi = 0; bi < ndummy; bi++) {
 8002ab8:	e0bfef17 	ldw	r2,-68(fp)
 8002abc:	10800044 	addi	r2,r2,1
 8002ac0:	e0bfef15 	stw	r2,-68(fp)
 8002ac4:	e0ffef17 	ldw	r3,-68(fp)
 8002ac8:	e0bff317 	ldw	r2,-52(fp)
 8002acc:	18bff416 	blt	r3,r2,8002aa0 <compress_first_pass+0x210>
    if (ndummy > 0)
      ndummy = h_samp_factor - ndummy;
    /* Perform DCT for all non-dummy blocks in this iMCU row.  Each call
     * on forward_DCT processes a complete horizontal row of DCT blocks.
     */
    for (block_row = 0; block_row < block_rows; block_row++) {
 8002ad0:	e0bff117 	ldw	r2,-60(fp)
 8002ad4:	10800044 	addi	r2,r2,1
 8002ad8:	e0bff115 	stw	r2,-60(fp)
 8002adc:	e0fff117 	ldw	r3,-60(fp)
 8002ae0:	e0bff217 	ldw	r2,-56(fp)
 8002ae4:	18bfbe16 	blt	r3,r2,80029e0 <compress_first_pass+0x150>
    /* If at end of image, create dummy block rows as needed.
     * The tricky part here is that within each MCU, we want the DC values
     * of the dummy blocks to match the last real block's DC value.
     * This squeezes a few more bytes out of the resulting file...
     */
    if (coef->iMCU_row_num == last_iMCU_row) {
 8002ae8:	e0bff717 	ldw	r2,-36(fp)
 8002aec:	10c00217 	ldw	r3,8(r2)
 8002af0:	e0bff817 	ldw	r2,-32(fp)
 8002af4:	1880541e 	bne	r3,r2,8002c48 <compress_first_pass+0x3b8>
      blocks_across += ndummy;	/* include lower right corner */
 8002af8:	e0bff317 	ldw	r2,-52(fp)
 8002afc:	e0fffa17 	ldw	r3,-24(fp)
 8002b00:	1885883a 	add	r2,r3,r2
 8002b04:	e0bffa15 	stw	r2,-24(fp)
      MCUs_across = blocks_across / h_samp_factor;
 8002b08:	e0bffb17 	ldw	r2,-20(fp)
 8002b0c:	100b883a 	mov	r5,r2
 8002b10:	e13ffa17 	ldw	r4,-24(fp)
 8002b14:	802ccfc0 	call	802ccfc <__udivsi3>
 8002b18:	e0bffd15 	stw	r2,-12(fp)
      for (block_row = block_rows; block_row < compptr->v_samp_factor;
 8002b1c:	e0bff217 	ldw	r2,-56(fp)
 8002b20:	e0bff115 	stw	r2,-60(fp)
 8002b24:	00004406 	br	8002c38 <compress_first_pass+0x3a8>
	   block_row++) {
	thisblockrow = buffer[block_row];
 8002b28:	e0bff117 	ldw	r2,-60(fp)
 8002b2c:	1085883a 	add	r2,r2,r2
 8002b30:	1085883a 	add	r2,r2,r2
 8002b34:	1007883a 	mov	r3,r2
 8002b38:	e0bff917 	ldw	r2,-28(fp)
 8002b3c:	10c5883a 	add	r2,r2,r3
 8002b40:	10800017 	ldw	r2,0(r2)
 8002b44:	e0bff515 	stw	r2,-44(fp)
	lastblockrow = buffer[block_row-1];
 8002b48:	e0fff117 	ldw	r3,-60(fp)
 8002b4c:	00900034 	movhi	r2,16384
 8002b50:	10bfffc4 	addi	r2,r2,-1
 8002b54:	1885883a 	add	r2,r3,r2
 8002b58:	1085883a 	add	r2,r2,r2
 8002b5c:	1085883a 	add	r2,r2,r2
 8002b60:	1007883a 	mov	r3,r2
 8002b64:	e0bff917 	ldw	r2,-28(fp)
 8002b68:	10c5883a 	add	r2,r2,r3
 8002b6c:	10800017 	ldw	r2,0(r2)
 8002b70:	e0bff615 	stw	r2,-40(fp)
	jzero_far((void FAR *) thisblockrow,
		  (size_t) (blocks_across * SIZEOF(JBLOCK)));
 8002b74:	e0bffa17 	ldw	r2,-24(fp)
 8002b78:	100491fa 	slli	r2,r2,7
      MCUs_across = blocks_across / h_samp_factor;
      for (block_row = block_rows; block_row < compptr->v_samp_factor;
	   block_row++) {
	thisblockrow = buffer[block_row];
	lastblockrow = buffer[block_row-1];
	jzero_far((void FAR *) thisblockrow,
 8002b7c:	100b883a 	mov	r5,r2
 8002b80:	e13ff517 	ldw	r4,-44(fp)
 8002b84:	80296380 	call	8029638 <jzero_far>
		  (size_t) (blocks_across * SIZEOF(JBLOCK)));
	for (MCUindex = 0; MCUindex < MCUs_across; MCUindex++) {
 8002b88:	e03fee15 	stw	zero,-72(fp)
 8002b8c:	00002406 	br	8002c20 <compress_first_pass+0x390>
	  lastDC = lastblockrow[h_samp_factor-1][0];
 8002b90:	e0fffb17 	ldw	r3,-20(fp)
 8002b94:	00808034 	movhi	r2,512
 8002b98:	10bfffc4 	addi	r2,r2,-1
 8002b9c:	1885883a 	add	r2,r3,r2
 8002ba0:	100491fa 	slli	r2,r2,7
 8002ba4:	e0fff617 	ldw	r3,-40(fp)
 8002ba8:	1885883a 	add	r2,r3,r2
 8002bac:	1080000b 	ldhu	r2,0(r2)
 8002bb0:	e0bffc0d 	sth	r2,-16(fp)
	  for (bi = 0; bi < h_samp_factor; bi++) {
 8002bb4:	e03fef15 	stw	zero,-68(fp)
 8002bb8:	00000906 	br	8002be0 <compress_first_pass+0x350>
	    thisblockrow[bi][0] = lastDC;
 8002bbc:	e0bfef17 	ldw	r2,-68(fp)
 8002bc0:	100491fa 	slli	r2,r2,7
 8002bc4:	e0fff517 	ldw	r3,-44(fp)
 8002bc8:	1885883a 	add	r2,r3,r2
 8002bcc:	e0fffc0b 	ldhu	r3,-16(fp)
 8002bd0:	10c0000d 	sth	r3,0(r2)
	lastblockrow = buffer[block_row-1];
	jzero_far((void FAR *) thisblockrow,
		  (size_t) (blocks_across * SIZEOF(JBLOCK)));
	for (MCUindex = 0; MCUindex < MCUs_across; MCUindex++) {
	  lastDC = lastblockrow[h_samp_factor-1][0];
	  for (bi = 0; bi < h_samp_factor; bi++) {
 8002bd4:	e0bfef17 	ldw	r2,-68(fp)
 8002bd8:	10800044 	addi	r2,r2,1
 8002bdc:	e0bfef15 	stw	r2,-68(fp)
 8002be0:	e0ffef17 	ldw	r3,-68(fp)
 8002be4:	e0bffb17 	ldw	r2,-20(fp)
 8002be8:	18bff416 	blt	r3,r2,8002bbc <compress_first_pass+0x32c>
	    thisblockrow[bi][0] = lastDC;
	  }
	  thisblockrow += h_samp_factor; /* advance to next MCU in row */
 8002bec:	e0bffb17 	ldw	r2,-20(fp)
 8002bf0:	100491fa 	slli	r2,r2,7
 8002bf4:	e0fff517 	ldw	r3,-44(fp)
 8002bf8:	1885883a 	add	r2,r3,r2
 8002bfc:	e0bff515 	stw	r2,-44(fp)
	  lastblockrow += h_samp_factor;
 8002c00:	e0bffb17 	ldw	r2,-20(fp)
 8002c04:	100491fa 	slli	r2,r2,7
 8002c08:	e0fff617 	ldw	r3,-40(fp)
 8002c0c:	1885883a 	add	r2,r3,r2
 8002c10:	e0bff615 	stw	r2,-40(fp)
	   block_row++) {
	thisblockrow = buffer[block_row];
	lastblockrow = buffer[block_row-1];
	jzero_far((void FAR *) thisblockrow,
		  (size_t) (blocks_across * SIZEOF(JBLOCK)));
	for (MCUindex = 0; MCUindex < MCUs_across; MCUindex++) {
 8002c14:	e0bfee17 	ldw	r2,-72(fp)
 8002c18:	10800044 	addi	r2,r2,1
 8002c1c:	e0bfee15 	stw	r2,-72(fp)
 8002c20:	e0ffee17 	ldw	r3,-72(fp)
 8002c24:	e0bffd17 	ldw	r2,-12(fp)
 8002c28:	18bfd936 	bltu	r3,r2,8002b90 <compress_first_pass+0x300>
     */
    if (coef->iMCU_row_num == last_iMCU_row) {
      blocks_across += ndummy;	/* include lower right corner */
      MCUs_across = blocks_across / h_samp_factor;
      for (block_row = block_rows; block_row < compptr->v_samp_factor;
	   block_row++) {
 8002c2c:	e0bff117 	ldw	r2,-60(fp)
 8002c30:	10800044 	addi	r2,r2,1
 8002c34:	e0bff115 	stw	r2,-60(fp)
     * This squeezes a few more bytes out of the resulting file...
     */
    if (coef->iMCU_row_num == last_iMCU_row) {
      blocks_across += ndummy;	/* include lower right corner */
      MCUs_across = blocks_across / h_samp_factor;
      for (block_row = block_rows; block_row < compptr->v_samp_factor;
 8002c38:	e0bff417 	ldw	r2,-48(fp)
 8002c3c:	10800317 	ldw	r2,12(r2)
 8002c40:	e0fff117 	ldw	r3,-60(fp)
 8002c44:	18bfb816 	blt	r3,r2,8002b28 <compress_first_pass+0x298>
  jpeg_component_info *compptr;
  JBLOCKARRAY buffer;
  JBLOCKROW thisblockrow, lastblockrow;

  for (ci = 0, compptr = cinfo->comp_info; ci < cinfo->num_components;
       ci++, compptr++) {
 8002c48:	e0bff017 	ldw	r2,-64(fp)
 8002c4c:	10800044 	addi	r2,r2,1
 8002c50:	e0bff015 	stw	r2,-64(fp)
 8002c54:	e0bff417 	ldw	r2,-48(fp)
 8002c58:	10801504 	addi	r2,r2,84
 8002c5c:	e0bff415 	stw	r2,-48(fp)
  JCOEF lastDC;
  jpeg_component_info *compptr;
  JBLOCKARRAY buffer;
  JBLOCKROW thisblockrow, lastblockrow;

  for (ci = 0, compptr = cinfo->comp_info; ci < cinfo->num_components;
 8002c60:	e0bffe17 	ldw	r2,-8(fp)
 8002c64:	10800d17 	ldw	r2,52(r2)
 8002c68:	e0fff017 	ldw	r3,-64(fp)
 8002c6c:	18bf1a16 	blt	r3,r2,80028d8 <compress_first_pass+0x48>
  /* NB: compress_output will increment iMCU_row_num if successful.
   * A suspension return will result in redoing all the work above next time.
   */

  /* Emit data to the entropy encoder, sharing code with subsequent passes */
  return compress_output(cinfo, input_buf);
 8002c70:	e17fff17 	ldw	r5,-4(fp)
 8002c74:	e13ffe17 	ldw	r4,-8(fp)
 8002c78:	8002c900 	call	8002c90 <compress_output>
}
 8002c7c:	e037883a 	mov	sp,fp
 8002c80:	dfc00117 	ldw	ra,4(sp)
 8002c84:	df000017 	ldw	fp,0(sp)
 8002c88:	dec00204 	addi	sp,sp,8
 8002c8c:	f800283a 	ret

08002c90 <compress_output>:
 * NB: input_buf is ignored; it is likely to be a NULL pointer.
 */

METHODDEF(boolean)
compress_output (j_compress_ptr cinfo, JSAMPIMAGE input_buf)
{
 8002c90:	deffed04 	addi	sp,sp,-76
 8002c94:	dfc01215 	stw	ra,72(sp)
 8002c98:	df001115 	stw	fp,68(sp)
 8002c9c:	df001104 	addi	fp,sp,68
 8002ca0:	e13ffe15 	stw	r4,-8(fp)
 8002ca4:	e17fff15 	stw	r5,-4(fp)
  my_coef_ptr coef = (my_coef_ptr) cinfo->coef;
 8002ca8:	e0bffe17 	ldw	r2,-8(fp)
 8002cac:	10805417 	ldw	r2,336(r2)
 8002cb0:	e0bff715 	stw	r2,-36(fp)

  /* Align the virtual buffers for the components used in this scan.
   * NB: during first pass, this is safe only because the buffers will
   * already be aligned properly, so jmemmgr.c won't need to do any I/O.
   */
  for (ci = 0; ci < cinfo->comps_in_scan; ci++) {
 8002cb4:	e03ff215 	stw	zero,-56(fp)
 8002cb8:	00002a06 	br	8002d64 <compress_output+0xd4>
    compptr = cinfo->cur_comp_info[ci];
 8002cbc:	e0fffe17 	ldw	r3,-8(fp)
 8002cc0:	e0bff217 	ldw	r2,-56(fp)
 8002cc4:	10800f04 	addi	r2,r2,60
 8002cc8:	1085883a 	add	r2,r2,r2
 8002ccc:	1085883a 	add	r2,r2,r2
 8002cd0:	1885883a 	add	r2,r3,r2
 8002cd4:	10800017 	ldw	r2,0(r2)
 8002cd8:	e0bff815 	stw	r2,-32(fp)
    buffer[ci] = (*cinfo->mem->access_virt_barray)
 8002cdc:	e0bffe17 	ldw	r2,-8(fp)
 8002ce0:	10800117 	ldw	r2,4(r2)
 8002ce4:	10c00817 	ldw	r3,32(r2)
      ((j_common_ptr) cinfo, coef->whole_image[compptr->component_index],
 8002ce8:	e0bff817 	ldw	r2,-32(fp)
 8002cec:	10800117 	ldw	r2,4(r2)
   * NB: during first pass, this is safe only because the buffers will
   * already be aligned properly, so jmemmgr.c won't need to do any I/O.
   */
  for (ci = 0; ci < cinfo->comps_in_scan; ci++) {
    compptr = cinfo->cur_comp_info[ci];
    buffer[ci] = (*cinfo->mem->access_virt_barray)
 8002cf0:	e13ff717 	ldw	r4,-36(fp)
 8002cf4:	10800404 	addi	r2,r2,16
 8002cf8:	1085883a 	add	r2,r2,r2
 8002cfc:	1085883a 	add	r2,r2,r2
 8002d00:	2085883a 	add	r2,r4,r2
 8002d04:	11400017 	ldw	r5,0(r2)
      ((j_common_ptr) cinfo, coef->whole_image[compptr->component_index],
       coef->iMCU_row_num * compptr->v_samp_factor,
 8002d08:	e0bff717 	ldw	r2,-36(fp)
 8002d0c:	10800217 	ldw	r2,8(r2)
 8002d10:	e13ff817 	ldw	r4,-32(fp)
 8002d14:	21000317 	ldw	r4,12(r4)
   * NB: during first pass, this is safe only because the buffers will
   * already be aligned properly, so jmemmgr.c won't need to do any I/O.
   */
  for (ci = 0; ci < cinfo->comps_in_scan; ci++) {
    compptr = cinfo->cur_comp_info[ci];
    buffer[ci] = (*cinfo->mem->access_virt_barray)
 8002d18:	1109383a 	mul	r4,r2,r4
      ((j_common_ptr) cinfo, coef->whole_image[compptr->component_index],
       coef->iMCU_row_num * compptr->v_samp_factor,
       (JDIMENSION) compptr->v_samp_factor, FALSE);
 8002d1c:	e0bff817 	ldw	r2,-32(fp)
 8002d20:	10800317 	ldw	r2,12(r2)
   * NB: during first pass, this is safe only because the buffers will
   * already be aligned properly, so jmemmgr.c won't need to do any I/O.
   */
  for (ci = 0; ci < cinfo->comps_in_scan; ci++) {
    compptr = cinfo->cur_comp_info[ci];
    buffer[ci] = (*cinfo->mem->access_virt_barray)
 8002d24:	d8000015 	stw	zero,0(sp)
 8002d28:	100f883a 	mov	r7,r2
 8002d2c:	200d883a 	mov	r6,r4
 8002d30:	e13ffe17 	ldw	r4,-8(fp)
 8002d34:	183ee83a 	callr	r3
 8002d38:	1007883a 	mov	r3,r2
 8002d3c:	e0bff217 	ldw	r2,-56(fp)
 8002d40:	1085883a 	add	r2,r2,r2
 8002d44:	1085883a 	add	r2,r2,r2
 8002d48:	e13ff004 	addi	r4,fp,-64
 8002d4c:	2085883a 	add	r2,r4,r2
 8002d50:	10800a04 	addi	r2,r2,40
 8002d54:	10c00015 	stw	r3,0(r2)

  /* Align the virtual buffers for the components used in this scan.
   * NB: during first pass, this is safe only because the buffers will
   * already be aligned properly, so jmemmgr.c won't need to do any I/O.
   */
  for (ci = 0; ci < cinfo->comps_in_scan; ci++) {
 8002d58:	e0bff217 	ldw	r2,-56(fp)
 8002d5c:	10800044 	addi	r2,r2,1
 8002d60:	e0bff215 	stw	r2,-56(fp)
 8002d64:	e0bffe17 	ldw	r2,-8(fp)
 8002d68:	10803b17 	ldw	r2,236(r2)
 8002d6c:	e0fff217 	ldw	r3,-56(fp)
 8002d70:	18bfd216 	blt	r3,r2,8002cbc <compress_output+0x2c>
       coef->iMCU_row_num * compptr->v_samp_factor,
       (JDIMENSION) compptr->v_samp_factor, FALSE);
  }

  /* Loop to process one whole iMCU row */
  for (yoffset = coef->MCU_vert_offset; yoffset < coef->MCU_rows_per_iMCU_row;
 8002d74:	e0bff717 	ldw	r2,-36(fp)
 8002d78:	10800417 	ldw	r2,16(r2)
 8002d7c:	e0bff515 	stw	r2,-44(fp)
 8002d80:	00006906 	br	8002f28 <compress_output+0x298>
       yoffset++) {
    for (MCU_col_num = coef->mcu_ctr; MCU_col_num < cinfo->MCUs_per_row;
 8002d84:	e0bff717 	ldw	r2,-36(fp)
 8002d88:	10800317 	ldw	r2,12(r2)
 8002d8c:	e0bff015 	stw	r2,-64(fp)
 8002d90:	00005c06 	br	8002f04 <compress_output+0x274>
	 MCU_col_num++) {
      /* Construct list of pointers to DCT blocks belonging to this MCU */
      blkn = 0;			/* index of current DCT block within MCU */
 8002d94:	e03ff115 	stw	zero,-60(fp)
      for (ci = 0; ci < cinfo->comps_in_scan; ci++) {
 8002d98:	e03ff215 	stw	zero,-56(fp)
 8002d9c:	00004106 	br	8002ea4 <compress_output+0x214>
	compptr = cinfo->cur_comp_info[ci];
 8002da0:	e0fffe17 	ldw	r3,-8(fp)
 8002da4:	e0bff217 	ldw	r2,-56(fp)
 8002da8:	10800f04 	addi	r2,r2,60
 8002dac:	1085883a 	add	r2,r2,r2
 8002db0:	1085883a 	add	r2,r2,r2
 8002db4:	1885883a 	add	r2,r3,r2
 8002db8:	10800017 	ldw	r2,0(r2)
 8002dbc:	e0bff815 	stw	r2,-32(fp)
	start_col = MCU_col_num * compptr->MCU_width;
 8002dc0:	e0bff817 	ldw	r2,-32(fp)
 8002dc4:	10800d17 	ldw	r2,52(r2)
 8002dc8:	1007883a 	mov	r3,r2
 8002dcc:	e0bff017 	ldw	r2,-64(fp)
 8002dd0:	1885383a 	mul	r2,r3,r2
 8002dd4:	e0bff915 	stw	r2,-28(fp)
	for (yindex = 0; yindex < compptr->MCU_height; yindex++) {
 8002dd8:	e03ff415 	stw	zero,-48(fp)
 8002ddc:	00002a06 	br	8002e88 <compress_output+0x1f8>
	  buffer_ptr = buffer[ci][yindex+yoffset] + start_col;
 8002de0:	e0bff217 	ldw	r2,-56(fp)
 8002de4:	1085883a 	add	r2,r2,r2
 8002de8:	1085883a 	add	r2,r2,r2
 8002dec:	e0fff004 	addi	r3,fp,-64
 8002df0:	1885883a 	add	r2,r3,r2
 8002df4:	10800a04 	addi	r2,r2,40
 8002df8:	10c00017 	ldw	r3,0(r2)
 8002dfc:	e13ff417 	ldw	r4,-48(fp)
 8002e00:	e0bff517 	ldw	r2,-44(fp)
 8002e04:	2085883a 	add	r2,r4,r2
 8002e08:	1085883a 	add	r2,r2,r2
 8002e0c:	1085883a 	add	r2,r2,r2
 8002e10:	1885883a 	add	r2,r3,r2
 8002e14:	10c00017 	ldw	r3,0(r2)
 8002e18:	e0bff917 	ldw	r2,-28(fp)
 8002e1c:	100491fa 	slli	r2,r2,7
 8002e20:	1885883a 	add	r2,r3,r2
 8002e24:	e0bff615 	stw	r2,-40(fp)
	  for (xindex = 0; xindex < compptr->MCU_width; xindex++) {
 8002e28:	e03ff315 	stw	zero,-52(fp)
 8002e2c:	00000f06 	br	8002e6c <compress_output+0x1dc>
	    coef->MCU_buffer[blkn++] = buffer_ptr++;
 8002e30:	e0fff117 	ldw	r3,-60(fp)
 8002e34:	18800044 	addi	r2,r3,1
 8002e38:	e0bff115 	stw	r2,-60(fp)
 8002e3c:	e0bff617 	ldw	r2,-40(fp)
 8002e40:	11002004 	addi	r4,r2,128
 8002e44:	e13ff615 	stw	r4,-40(fp)
 8002e48:	e13ff717 	ldw	r4,-36(fp)
 8002e4c:	18c00184 	addi	r3,r3,6
 8002e50:	18c7883a 	add	r3,r3,r3
 8002e54:	18c7883a 	add	r3,r3,r3
 8002e58:	20c7883a 	add	r3,r4,r3
 8002e5c:	18800015 	stw	r2,0(r3)
      for (ci = 0; ci < cinfo->comps_in_scan; ci++) {
	compptr = cinfo->cur_comp_info[ci];
	start_col = MCU_col_num * compptr->MCU_width;
	for (yindex = 0; yindex < compptr->MCU_height; yindex++) {
	  buffer_ptr = buffer[ci][yindex+yoffset] + start_col;
	  for (xindex = 0; xindex < compptr->MCU_width; xindex++) {
 8002e60:	e0bff317 	ldw	r2,-52(fp)
 8002e64:	10800044 	addi	r2,r2,1
 8002e68:	e0bff315 	stw	r2,-52(fp)
 8002e6c:	e0bff817 	ldw	r2,-32(fp)
 8002e70:	10800d17 	ldw	r2,52(r2)
 8002e74:	e0fff317 	ldw	r3,-52(fp)
 8002e78:	18bfed16 	blt	r3,r2,8002e30 <compress_output+0x1a0>
      /* Construct list of pointers to DCT blocks belonging to this MCU */
      blkn = 0;			/* index of current DCT block within MCU */
      for (ci = 0; ci < cinfo->comps_in_scan; ci++) {
	compptr = cinfo->cur_comp_info[ci];
	start_col = MCU_col_num * compptr->MCU_width;
	for (yindex = 0; yindex < compptr->MCU_height; yindex++) {
 8002e7c:	e0bff417 	ldw	r2,-48(fp)
 8002e80:	10800044 	addi	r2,r2,1
 8002e84:	e0bff415 	stw	r2,-48(fp)
 8002e88:	e0bff817 	ldw	r2,-32(fp)
 8002e8c:	10800e17 	ldw	r2,56(r2)
 8002e90:	e0fff417 	ldw	r3,-48(fp)
 8002e94:	18bfd216 	blt	r3,r2,8002de0 <compress_output+0x150>
       yoffset++) {
    for (MCU_col_num = coef->mcu_ctr; MCU_col_num < cinfo->MCUs_per_row;
	 MCU_col_num++) {
      /* Construct list of pointers to DCT blocks belonging to this MCU */
      blkn = 0;			/* index of current DCT block within MCU */
      for (ci = 0; ci < cinfo->comps_in_scan; ci++) {
 8002e98:	e0bff217 	ldw	r2,-56(fp)
 8002e9c:	10800044 	addi	r2,r2,1
 8002ea0:	e0bff215 	stw	r2,-56(fp)
 8002ea4:	e0bffe17 	ldw	r2,-8(fp)
 8002ea8:	10803b17 	ldw	r2,236(r2)
 8002eac:	e0fff217 	ldw	r3,-56(fp)
 8002eb0:	18bfbb16 	blt	r3,r2,8002da0 <compress_output+0x110>
	    coef->MCU_buffer[blkn++] = buffer_ptr++;
	  }
	}
      }
      /* Try to write the MCU. */
      if (! (*cinfo->entropy->encode_mcu) (cinfo, coef->MCU_buffer)) {
 8002eb4:	e0bffe17 	ldw	r2,-8(fp)
 8002eb8:	10805917 	ldw	r2,356(r2)
 8002ebc:	10800117 	ldw	r2,4(r2)
 8002ec0:	e0fff717 	ldw	r3,-36(fp)
 8002ec4:	18c00604 	addi	r3,r3,24
 8002ec8:	180b883a 	mov	r5,r3
 8002ecc:	e13ffe17 	ldw	r4,-8(fp)
 8002ed0:	103ee83a 	callr	r2
 8002ed4:	1000081e 	bne	r2,zero,8002ef8 <compress_output+0x268>
	/* Suspension forced; update state counters and exit */
	coef->MCU_vert_offset = yoffset;
 8002ed8:	e0bff717 	ldw	r2,-36(fp)
 8002edc:	e0fff517 	ldw	r3,-44(fp)
 8002ee0:	10c00415 	stw	r3,16(r2)
	coef->mcu_ctr = MCU_col_num;
 8002ee4:	e0bff717 	ldw	r2,-36(fp)
 8002ee8:	e0fff017 	ldw	r3,-64(fp)
 8002eec:	10c00315 	stw	r3,12(r2)
	return FALSE;
 8002ef0:	0005883a 	mov	r2,zero
 8002ef4:	00001806 	br	8002f58 <compress_output+0x2c8>

  /* Loop to process one whole iMCU row */
  for (yoffset = coef->MCU_vert_offset; yoffset < coef->MCU_rows_per_iMCU_row;
       yoffset++) {
    for (MCU_col_num = coef->mcu_ctr; MCU_col_num < cinfo->MCUs_per_row;
	 MCU_col_num++) {
 8002ef8:	e0bff017 	ldw	r2,-64(fp)
 8002efc:	10800044 	addi	r2,r2,1
 8002f00:	e0bff015 	stw	r2,-64(fp)
  }

  /* Loop to process one whole iMCU row */
  for (yoffset = coef->MCU_vert_offset; yoffset < coef->MCU_rows_per_iMCU_row;
       yoffset++) {
    for (MCU_col_num = coef->mcu_ctr; MCU_col_num < cinfo->MCUs_per_row;
 8002f04:	e0bffe17 	ldw	r2,-8(fp)
 8002f08:	10804017 	ldw	r2,256(r2)
 8002f0c:	e0fff017 	ldw	r3,-64(fp)
 8002f10:	18bfa036 	bltu	r3,r2,8002d94 <compress_output+0x104>
	coef->mcu_ctr = MCU_col_num;
	return FALSE;
      }
    }
    /* Completed an MCU row, but perhaps not an iMCU row */
    coef->mcu_ctr = 0;
 8002f14:	e0bff717 	ldw	r2,-36(fp)
 8002f18:	10000315 	stw	zero,12(r2)
       (JDIMENSION) compptr->v_samp_factor, FALSE);
  }

  /* Loop to process one whole iMCU row */
  for (yoffset = coef->MCU_vert_offset; yoffset < coef->MCU_rows_per_iMCU_row;
       yoffset++) {
 8002f1c:	e0bff517 	ldw	r2,-44(fp)
 8002f20:	10800044 	addi	r2,r2,1
 8002f24:	e0bff515 	stw	r2,-44(fp)
       coef->iMCU_row_num * compptr->v_samp_factor,
       (JDIMENSION) compptr->v_samp_factor, FALSE);
  }

  /* Loop to process one whole iMCU row */
  for (yoffset = coef->MCU_vert_offset; yoffset < coef->MCU_rows_per_iMCU_row;
 8002f28:	e0bff717 	ldw	r2,-36(fp)
 8002f2c:	10800517 	ldw	r2,20(r2)
 8002f30:	e0fff517 	ldw	r3,-44(fp)
 8002f34:	18bf9316 	blt	r3,r2,8002d84 <compress_output+0xf4>
    }
    /* Completed an MCU row, but perhaps not an iMCU row */
    coef->mcu_ctr = 0;
  }
  /* Completed the iMCU row, advance counters for next one */
  coef->iMCU_row_num++;
 8002f38:	e0bff717 	ldw	r2,-36(fp)
 8002f3c:	10800217 	ldw	r2,8(r2)
 8002f40:	10c00044 	addi	r3,r2,1
 8002f44:	e0bff717 	ldw	r2,-36(fp)
 8002f48:	10c00215 	stw	r3,8(r2)
  start_iMCU_row(cinfo);
 8002f4c:	e13ffe17 	ldw	r4,-8(fp)
 8002f50:	800229c0 	call	800229c <start_iMCU_row>
  return TRUE;
 8002f54:	00800044 	movi	r2,1
}
 8002f58:	e037883a 	mov	sp,fp
 8002f5c:	dfc00117 	ldw	ra,4(sp)
 8002f60:	df000017 	ldw	fp,0(sp)
 8002f64:	dec00204 	addi	sp,sp,8
 8002f68:	f800283a 	ret

08002f6c <jinit_c_coef_controller>:
 * Initialize coefficient buffer controller.
 */

GLOBAL(void)
jinit_c_coef_controller (j_compress_ptr cinfo, boolean need_full_buffer)
{
 8002f6c:	defff304 	addi	sp,sp,-52
 8002f70:	dfc00c15 	stw	ra,48(sp)
 8002f74:	df000b15 	stw	fp,44(sp)
 8002f78:	dc400a15 	stw	r17,40(sp)
 8002f7c:	dc000915 	stw	r16,36(sp)
 8002f80:	df000b04 	addi	fp,sp,44
 8002f84:	e13ffc15 	stw	r4,-16(fp)
 8002f88:	e17ffd15 	stw	r5,-12(fp)
  my_coef_ptr coef;

  coef = (my_coef_ptr)
    (*cinfo->mem->alloc_small) ((j_common_ptr) cinfo, JPOOL_IMAGE,
 8002f8c:	e0bffc17 	ldw	r2,-16(fp)
 8002f90:	10800117 	ldw	r2,4(r2)
 8002f94:	10800017 	ldw	r2,0(r2)
GLOBAL(void)
jinit_c_coef_controller (j_compress_ptr cinfo, boolean need_full_buffer)
{
  my_coef_ptr coef;

  coef = (my_coef_ptr)
 8002f98:	01801a04 	movi	r6,104
 8002f9c:	01400044 	movi	r5,1
 8002fa0:	e13ffc17 	ldw	r4,-16(fp)
 8002fa4:	103ee83a 	callr	r2
 8002fa8:	e0bffa15 	stw	r2,-24(fp)
    (*cinfo->mem->alloc_small) ((j_common_ptr) cinfo, JPOOL_IMAGE,
				SIZEOF(my_coef_controller));
  cinfo->coef = (struct jpeg_c_coef_controller *) coef;
 8002fac:	e0bffc17 	ldw	r2,-16(fp)
 8002fb0:	e0fffa17 	ldw	r3,-24(fp)
 8002fb4:	10c05415 	stw	r3,336(r2)
  coef->pub.start_pass = start_pass_coef;
 8002fb8:	e0fffa17 	ldw	r3,-24(fp)
 8002fbc:	00820034 	movhi	r2,2048
 8002fc0:	1088d004 	addi	r2,r2,9024
 8002fc4:	18800015 	stw	r2,0(r3)

  /* Create the coefficient buffer. */
  if (need_full_buffer) {
 8002fc8:	e0bffd17 	ldw	r2,-12(fp)
 8002fcc:	10003626 	beq	r2,zero,80030a8 <jinit_c_coef_controller+0x13c>
    /* Allocate a full-image virtual array for each component, */
    /* padded to a multiple of samp_factor DCT blocks in each direction. */
    int ci;
    jpeg_component_info *compptr;

    for (ci = 0, compptr = cinfo->comp_info; ci < cinfo->num_components;
 8002fd0:	e03ff715 	stw	zero,-36(fp)
 8002fd4:	e0bffc17 	ldw	r2,-16(fp)
 8002fd8:	10800f17 	ldw	r2,60(r2)
 8002fdc:	e0bff815 	stw	r2,-32(fp)
 8002fe0:	00002c06 	br	8003094 <jinit_c_coef_controller+0x128>
	 ci++, compptr++) {
      coef->whole_image[ci] = (*cinfo->mem->request_virt_barray)
 8002fe4:	e0bffc17 	ldw	r2,-16(fp)
 8002fe8:	10800117 	ldw	r2,4(r2)
 8002fec:	14000517 	ldw	r16,20(r2)
	((j_common_ptr) cinfo, JPOOL_IMAGE, FALSE,
	 (JDIMENSION) jround_up((long) compptr->width_in_blocks,
 8002ff0:	e0bff817 	ldw	r2,-32(fp)
 8002ff4:	10800717 	ldw	r2,28(r2)
 8002ff8:	1007883a 	mov	r3,r2
				(long) compptr->h_samp_factor),
 8002ffc:	e0bff817 	ldw	r2,-32(fp)
 8003000:	10800217 	ldw	r2,8(r2)

    for (ci = 0, compptr = cinfo->comp_info; ci < cinfo->num_components;
	 ci++, compptr++) {
      coef->whole_image[ci] = (*cinfo->mem->request_virt_barray)
	((j_common_ptr) cinfo, JPOOL_IMAGE, FALSE,
	 (JDIMENSION) jround_up((long) compptr->width_in_blocks,
 8003004:	100b883a 	mov	r5,r2
 8003008:	1809883a 	mov	r4,r3
 800300c:	80294bc0 	call	80294bc <jround_up>
    int ci;
    jpeg_component_info *compptr;

    for (ci = 0, compptr = cinfo->comp_info; ci < cinfo->num_components;
	 ci++, compptr++) {
      coef->whole_image[ci] = (*cinfo->mem->request_virt_barray)
 8003010:	1023883a 	mov	r17,r2
	((j_common_ptr) cinfo, JPOOL_IMAGE, FALSE,
	 (JDIMENSION) jround_up((long) compptr->width_in_blocks,
				(long) compptr->h_samp_factor),
	 (JDIMENSION) jround_up((long) compptr->height_in_blocks,
 8003014:	e0bff817 	ldw	r2,-32(fp)
 8003018:	10800817 	ldw	r2,32(r2)
 800301c:	1007883a 	mov	r3,r2
				(long) compptr->v_samp_factor),
 8003020:	e0bff817 	ldw	r2,-32(fp)
 8003024:	10800317 	ldw	r2,12(r2)
	 ci++, compptr++) {
      coef->whole_image[ci] = (*cinfo->mem->request_virt_barray)
	((j_common_ptr) cinfo, JPOOL_IMAGE, FALSE,
	 (JDIMENSION) jround_up((long) compptr->width_in_blocks,
				(long) compptr->h_samp_factor),
	 (JDIMENSION) jround_up((long) compptr->height_in_blocks,
 8003028:	100b883a 	mov	r5,r2
 800302c:	1809883a 	mov	r4,r3
 8003030:	80294bc0 	call	80294bc <jround_up>
    int ci;
    jpeg_component_info *compptr;

    for (ci = 0, compptr = cinfo->comp_info; ci < cinfo->num_components;
	 ci++, compptr++) {
      coef->whole_image[ci] = (*cinfo->mem->request_virt_barray)
 8003034:	1007883a 	mov	r3,r2
	((j_common_ptr) cinfo, JPOOL_IMAGE, FALSE,
	 (JDIMENSION) jround_up((long) compptr->width_in_blocks,
				(long) compptr->h_samp_factor),
	 (JDIMENSION) jround_up((long) compptr->height_in_blocks,
				(long) compptr->v_samp_factor),
	 (JDIMENSION) compptr->v_samp_factor);
 8003038:	e0bff817 	ldw	r2,-32(fp)
 800303c:	10800317 	ldw	r2,12(r2)
    int ci;
    jpeg_component_info *compptr;

    for (ci = 0, compptr = cinfo->comp_info; ci < cinfo->num_components;
	 ci++, compptr++) {
      coef->whole_image[ci] = (*cinfo->mem->request_virt_barray)
 8003040:	d8800115 	stw	r2,4(sp)
 8003044:	d8c00015 	stw	r3,0(sp)
 8003048:	880f883a 	mov	r7,r17
 800304c:	000d883a 	mov	r6,zero
 8003050:	01400044 	movi	r5,1
 8003054:	e13ffc17 	ldw	r4,-16(fp)
 8003058:	803ee83a 	callr	r16
 800305c:	1009883a 	mov	r4,r2
 8003060:	e0fffa17 	ldw	r3,-24(fp)
 8003064:	e0bff717 	ldw	r2,-36(fp)
 8003068:	10800404 	addi	r2,r2,16
 800306c:	1085883a 	add	r2,r2,r2
 8003070:	1085883a 	add	r2,r2,r2
 8003074:	1885883a 	add	r2,r3,r2
 8003078:	11000015 	stw	r4,0(r2)
    /* padded to a multiple of samp_factor DCT blocks in each direction. */
    int ci;
    jpeg_component_info *compptr;

    for (ci = 0, compptr = cinfo->comp_info; ci < cinfo->num_components;
	 ci++, compptr++) {
 800307c:	e0bff717 	ldw	r2,-36(fp)
 8003080:	10800044 	addi	r2,r2,1
 8003084:	e0bff715 	stw	r2,-36(fp)
 8003088:	e0bff817 	ldw	r2,-32(fp)
 800308c:	10801504 	addi	r2,r2,84
 8003090:	e0bff815 	stw	r2,-32(fp)
    /* Allocate a full-image virtual array for each component, */
    /* padded to a multiple of samp_factor DCT blocks in each direction. */
    int ci;
    jpeg_component_info *compptr;

    for (ci = 0, compptr = cinfo->comp_info; ci < cinfo->num_components;
 8003094:	e0bffc17 	ldw	r2,-16(fp)
 8003098:	10800d17 	ldw	r2,52(r2)
 800309c:	e0fff717 	ldw	r3,-36(fp)
 80030a0:	18bfd016 	blt	r3,r2,8002fe4 <jinit_c_coef_controller+0x78>
    for (i = 0; i < C_MAX_BLOCKS_IN_MCU; i++) {
      coef->MCU_buffer[i] = buffer + i;
    }
    coef->whole_image[0] = NULL; /* flag for no virtual arrays */
  }
}
 80030a4:	00001d06 	br	800311c <jinit_c_coef_controller+0x1b0>
    /* We only need a single-MCU buffer. */
    JBLOCKROW buffer;
    int i;

    buffer = (JBLOCKROW)
      (*cinfo->mem->alloc_large) ((j_common_ptr) cinfo, JPOOL_IMAGE,
 80030a8:	e0bffc17 	ldw	r2,-16(fp)
 80030ac:	10800117 	ldw	r2,4(r2)
 80030b0:	10800117 	ldw	r2,4(r2)
  } else {
    /* We only need a single-MCU buffer. */
    JBLOCKROW buffer;
    int i;

    buffer = (JBLOCKROW)
 80030b4:	01814004 	movi	r6,1280
 80030b8:	01400044 	movi	r5,1
 80030bc:	e13ffc17 	ldw	r4,-16(fp)
 80030c0:	103ee83a 	callr	r2
 80030c4:	e0bffb15 	stw	r2,-20(fp)
      (*cinfo->mem->alloc_large) ((j_common_ptr) cinfo, JPOOL_IMAGE,
				  C_MAX_BLOCKS_IN_MCU * SIZEOF(JBLOCK));
    for (i = 0; i < C_MAX_BLOCKS_IN_MCU; i++) {
 80030c8:	e03ff915 	stw	zero,-28(fp)
 80030cc:	00000e06 	br	8003108 <jinit_c_coef_controller+0x19c>
      coef->MCU_buffer[i] = buffer + i;
 80030d0:	e0bff917 	ldw	r2,-28(fp)
 80030d4:	100491fa 	slli	r2,r2,7
 80030d8:	e0fffb17 	ldw	r3,-20(fp)
 80030dc:	1887883a 	add	r3,r3,r2
 80030e0:	e13ffa17 	ldw	r4,-24(fp)
 80030e4:	e0bff917 	ldw	r2,-28(fp)
 80030e8:	10800184 	addi	r2,r2,6
 80030ec:	1085883a 	add	r2,r2,r2
 80030f0:	1085883a 	add	r2,r2,r2
 80030f4:	2085883a 	add	r2,r4,r2
 80030f8:	10c00015 	stw	r3,0(r2)
    int i;

    buffer = (JBLOCKROW)
      (*cinfo->mem->alloc_large) ((j_common_ptr) cinfo, JPOOL_IMAGE,
				  C_MAX_BLOCKS_IN_MCU * SIZEOF(JBLOCK));
    for (i = 0; i < C_MAX_BLOCKS_IN_MCU; i++) {
 80030fc:	e0bff917 	ldw	r2,-28(fp)
 8003100:	10800044 	addi	r2,r2,1
 8003104:	e0bff915 	stw	r2,-28(fp)
 8003108:	e0bff917 	ldw	r2,-28(fp)
 800310c:	10800290 	cmplti	r2,r2,10
 8003110:	103fef1e 	bne	r2,zero,80030d0 <jinit_c_coef_controller+0x164>
      coef->MCU_buffer[i] = buffer + i;
    }
    coef->whole_image[0] = NULL; /* flag for no virtual arrays */
 8003114:	e0bffa17 	ldw	r2,-24(fp)
 8003118:	10001015 	stw	zero,64(r2)
  }
}
 800311c:	0001883a 	nop
 8003120:	e6fffe04 	addi	sp,fp,-8
 8003124:	dfc00317 	ldw	ra,12(sp)
 8003128:	df000217 	ldw	fp,8(sp)
 800312c:	dc400117 	ldw	r17,4(sp)
 8003130:	dc000017 	ldw	r16,0(sp)
 8003134:	dec00404 	addi	sp,sp,16
 8003138:	f800283a 	ret

0800313c <rgb_ycc_start>:
 * Initialize for RGB->YCC colorspace conversion.
 */

METHODDEF(void)
rgb_ycc_start (j_compress_ptr cinfo)
{
 800313c:	defffa04 	addi	sp,sp,-24
 8003140:	dfc00515 	stw	ra,20(sp)
 8003144:	df000415 	stw	fp,16(sp)
 8003148:	df000404 	addi	fp,sp,16
 800314c:	e13fff15 	stw	r4,-4(fp)
  my_cconvert_ptr cconvert = (my_cconvert_ptr) cinfo->cconvert;
 8003150:	e0bfff17 	ldw	r2,-4(fp)
 8003154:	10805617 	ldw	r2,344(r2)
 8003158:	e0bffd15 	stw	r2,-12(fp)
  INT32 * rgb_ycc_tab;
  INT32 i;

  /* Allocate and fill in the conversion tables. */
  cconvert->rgb_ycc_tab = rgb_ycc_tab = (INT32 *)
    (*cinfo->mem->alloc_small) ((j_common_ptr) cinfo, JPOOL_IMAGE,
 800315c:	e0bfff17 	ldw	r2,-4(fp)
 8003160:	10800117 	ldw	r2,4(r2)
 8003164:	10800017 	ldw	r2,0(r2)
  my_cconvert_ptr cconvert = (my_cconvert_ptr) cinfo->cconvert;
  INT32 * rgb_ycc_tab;
  INT32 i;

  /* Allocate and fill in the conversion tables. */
  cconvert->rgb_ycc_tab = rgb_ycc_tab = (INT32 *)
 8003168:	01880004 	movi	r6,8192
 800316c:	01400044 	movi	r5,1
 8003170:	e13fff17 	ldw	r4,-4(fp)
 8003174:	103ee83a 	callr	r2
 8003178:	e0bffe15 	stw	r2,-8(fp)
 800317c:	e0bffd17 	ldw	r2,-12(fp)
 8003180:	e0fffe17 	ldw	r3,-8(fp)
 8003184:	10c00215 	stw	r3,8(r2)
    (*cinfo->mem->alloc_small) ((j_common_ptr) cinfo, JPOOL_IMAGE,
				(TABLE_SIZE * SIZEOF(INT32)));

  for (i = 0; i <= MAXJSAMPLE; i++) {
 8003188:	e03ffc15 	stw	zero,-16(fp)
 800318c:	00005706 	br	80032ec <rgb_ycc_start+0x1b0>
    rgb_ycc_tab[i+R_Y_OFF] = FIX(0.29900) * i;
 8003190:	e0bffc17 	ldw	r2,-16(fp)
 8003194:	1085883a 	add	r2,r2,r2
 8003198:	1085883a 	add	r2,r2,r2
 800319c:	1007883a 	mov	r3,r2
 80031a0:	e0bffe17 	ldw	r2,-8(fp)
 80031a4:	10c5883a 	add	r2,r2,r3
 80031a8:	e0fffc17 	ldw	r3,-16(fp)
 80031ac:	18d322e4 	muli	r3,r3,19595
 80031b0:	10c00015 	stw	r3,0(r2)
    rgb_ycc_tab[i+G_Y_OFF] = FIX(0.58700) * i;
 80031b4:	e0bffc17 	ldw	r2,-16(fp)
 80031b8:	10804004 	addi	r2,r2,256
 80031bc:	1085883a 	add	r2,r2,r2
 80031c0:	1085883a 	add	r2,r2,r2
 80031c4:	1007883a 	mov	r3,r2
 80031c8:	e0bffe17 	ldw	r2,-8(fp)
 80031cc:	10c5883a 	add	r2,r2,r3
 80031d0:	e13ffc17 	ldw	r4,-16(fp)
 80031d4:	00e59194 	movui	r3,38470
 80031d8:	20c7383a 	mul	r3,r4,r3
 80031dc:	10c00015 	stw	r3,0(r2)
    rgb_ycc_tab[i+B_Y_OFF] = FIX(0.11400) * i     + ONE_HALF;
 80031e0:	e0bffc17 	ldw	r2,-16(fp)
 80031e4:	10808004 	addi	r2,r2,512
 80031e8:	1085883a 	add	r2,r2,r2
 80031ec:	1085883a 	add	r2,r2,r2
 80031f0:	1007883a 	mov	r3,r2
 80031f4:	e0bffe17 	ldw	r2,-8(fp)
 80031f8:	10c5883a 	add	r2,r2,r3
 80031fc:	e0fffc17 	ldw	r3,-16(fp)
 8003200:	19074be4 	muli	r4,r3,7471
 8003204:	00e00014 	movui	r3,32768
 8003208:	20c7883a 	add	r3,r4,r3
 800320c:	10c00015 	stw	r3,0(r2)
    rgb_ycc_tab[i+R_CB_OFF] = (-FIX(0.16874)) * i;
 8003210:	e0bffc17 	ldw	r2,-16(fp)
 8003214:	1080c004 	addi	r2,r2,768
 8003218:	1085883a 	add	r2,r2,r2
 800321c:	1085883a 	add	r2,r2,r2
 8003220:	1007883a 	mov	r3,r2
 8003224:	e0bffe17 	ldw	r2,-8(fp)
 8003228:	10c5883a 	add	r2,r2,r3
 800322c:	e0fffc17 	ldw	r3,-16(fp)
 8003230:	18f53364 	muli	r3,r3,-11059
 8003234:	10c00015 	stw	r3,0(r2)
    rgb_ycc_tab[i+G_CB_OFF] = (-FIX(0.33126)) * i;
 8003238:	e0bffc17 	ldw	r2,-16(fp)
 800323c:	10810004 	addi	r2,r2,1024
 8003240:	1085883a 	add	r2,r2,r2
 8003244:	1085883a 	add	r2,r2,r2
 8003248:	1007883a 	mov	r3,r2
 800324c:	e0bffe17 	ldw	r2,-8(fp)
 8003250:	10c5883a 	add	r2,r2,r3
 8003254:	e0fffc17 	ldw	r3,-16(fp)
 8003258:	18eacce4 	muli	r3,r3,-21709
 800325c:	10c00015 	stw	r3,0(r2)
    /* We use a rounding fudge-factor of 0.5-epsilon for Cb and Cr.
     * This ensures that the maximum output will round to MAXJSAMPLE
     * not MAXJSAMPLE+1, and thus that we don't have to range-limit.
     */
    rgb_ycc_tab[i+B_CB_OFF] = FIX(0.50000) * i    + CBCR_OFFSET + ONE_HALF-1;
 8003260:	e0bffc17 	ldw	r2,-16(fp)
 8003264:	10814004 	addi	r2,r2,1280
 8003268:	1085883a 	add	r2,r2,r2
 800326c:	1085883a 	add	r2,r2,r2
 8003270:	1007883a 	mov	r3,r2
 8003274:	e0bffe17 	ldw	r2,-8(fp)
 8003278:	10c5883a 	add	r2,r2,r3
 800327c:	e0fffc17 	ldw	r3,-16(fp)
 8003280:	18c04044 	addi	r3,r3,257
 8003284:	180693fa 	slli	r3,r3,15
 8003288:	18ffffc4 	addi	r3,r3,-1
 800328c:	10c00015 	stw	r3,0(r2)
/*  B=>Cb and R=>Cr tables are the same
    rgb_ycc_tab[i+R_CR_OFF] = FIX(0.50000) * i    + CBCR_OFFSET + ONE_HALF-1;
*/
    rgb_ycc_tab[i+G_CR_OFF] = (-FIX(0.41869)) * i;
 8003290:	e0bffc17 	ldw	r2,-16(fp)
 8003294:	10818004 	addi	r2,r2,1536
 8003298:	1085883a 	add	r2,r2,r2
 800329c:	1085883a 	add	r2,r2,r2
 80032a0:	1007883a 	mov	r3,r2
 80032a4:	e0bffe17 	ldw	r2,-8(fp)
 80032a8:	10c5883a 	add	r2,r2,r3
 80032ac:	e0fffc17 	ldw	r3,-16(fp)
 80032b0:	18e53464 	muli	r3,r3,-27439
 80032b4:	10c00015 	stw	r3,0(r2)
    rgb_ycc_tab[i+B_CR_OFF] = (-FIX(0.08131)) * i;
 80032b8:	e0bffc17 	ldw	r2,-16(fp)
 80032bc:	1081c004 	addi	r2,r2,1792
 80032c0:	1085883a 	add	r2,r2,r2
 80032c4:	1085883a 	add	r2,r2,r2
 80032c8:	1007883a 	mov	r3,r2
 80032cc:	e0bffe17 	ldw	r2,-8(fp)
 80032d0:	10c5883a 	add	r2,r2,r3
 80032d4:	e0fffc17 	ldw	r3,-16(fp)
 80032d8:	18facbe4 	muli	r3,r3,-5329
 80032dc:	10c00015 	stw	r3,0(r2)
  /* Allocate and fill in the conversion tables. */
  cconvert->rgb_ycc_tab = rgb_ycc_tab = (INT32 *)
    (*cinfo->mem->alloc_small) ((j_common_ptr) cinfo, JPOOL_IMAGE,
				(TABLE_SIZE * SIZEOF(INT32)));

  for (i = 0; i <= MAXJSAMPLE; i++) {
 80032e0:	e0bffc17 	ldw	r2,-16(fp)
 80032e4:	10800044 	addi	r2,r2,1
 80032e8:	e0bffc15 	stw	r2,-16(fp)
 80032ec:	e0bffc17 	ldw	r2,-16(fp)
 80032f0:	10804010 	cmplti	r2,r2,256
 80032f4:	103fa61e 	bne	r2,zero,8003190 <rgb_ycc_start+0x54>
    rgb_ycc_tab[i+R_CR_OFF] = FIX(0.50000) * i    + CBCR_OFFSET + ONE_HALF-1;
*/
    rgb_ycc_tab[i+G_CR_OFF] = (-FIX(0.41869)) * i;
    rgb_ycc_tab[i+B_CR_OFF] = (-FIX(0.08131)) * i;
  }
}
 80032f8:	0001883a 	nop
 80032fc:	e037883a 	mov	sp,fp
 8003300:	dfc00117 	ldw	ra,4(sp)
 8003304:	df000017 	ldw	fp,0(sp)
 8003308:	dec00204 	addi	sp,sp,8
 800330c:	f800283a 	ret

08003310 <rgb_ycc_convert>:

METHODDEF(void)
rgb_ycc_convert (j_compress_ptr cinfo,
		 JSAMPARRAY input_buf, JSAMPIMAGE output_buf,
		 JDIMENSION output_row, int num_rows)
{
 8003310:	defff004 	addi	sp,sp,-64
 8003314:	df000f15 	stw	fp,60(sp)
 8003318:	ddc00e15 	stw	r23,56(sp)
 800331c:	dd800d15 	stw	r22,52(sp)
 8003320:	dd400c15 	stw	r21,48(sp)
 8003324:	dd000b15 	stw	r20,44(sp)
 8003328:	dcc00a15 	stw	r19,40(sp)
 800332c:	dc800915 	stw	r18,36(sp)
 8003330:	dc400815 	stw	r17,32(sp)
 8003334:	dc000715 	stw	r16,28(sp)
 8003338:	df000f04 	addi	fp,sp,60
 800333c:	e13ff315 	stw	r4,-52(fp)
 8003340:	e17ff415 	stw	r5,-48(fp)
 8003344:	e1bff515 	stw	r6,-44(fp)
 8003348:	e1fff615 	stw	r7,-40(fp)
  my_cconvert_ptr cconvert = (my_cconvert_ptr) cinfo->cconvert;
 800334c:	e0bff317 	ldw	r2,-52(fp)
 8003350:	10805617 	ldw	r2,344(r2)
 8003354:	e0bff115 	stw	r2,-60(fp)
  register int r, g, b;
  register INT32 * ctab = cconvert->rgb_ycc_tab;
 8003358:	e0bff117 	ldw	r2,-60(fp)
 800335c:	14000217 	ldw	r16,8(r2)
  register JSAMPROW inptr;
  register JSAMPROW outptr0, outptr1, outptr2;
  register JDIMENSION col;
  JDIMENSION num_cols = cinfo->image_width;
 8003360:	e0bff317 	ldw	r2,-52(fp)
 8003364:	10800617 	ldw	r2,24(r2)
 8003368:	e0bff215 	stw	r2,-56(fp)

  while (--num_rows >= 0) {
 800336c:	00007206 	br	8003538 <rgb_ycc_convert+0x228>
    inptr = *input_buf++;
 8003370:	e0bff417 	ldw	r2,-48(fp)
 8003374:	10c00104 	addi	r3,r2,4
 8003378:	e0fff415 	stw	r3,-48(fp)
 800337c:	14800017 	ldw	r18,0(r2)
    outptr0 = output_buf[0][output_row];
 8003380:	e0bff517 	ldw	r2,-44(fp)
 8003384:	10c00017 	ldw	r3,0(r2)
 8003388:	e0bff617 	ldw	r2,-40(fp)
 800338c:	1085883a 	add	r2,r2,r2
 8003390:	1085883a 	add	r2,r2,r2
 8003394:	1885883a 	add	r2,r3,r2
 8003398:	15800017 	ldw	r22,0(r2)
    outptr1 = output_buf[1][output_row];
 800339c:	e0bff517 	ldw	r2,-44(fp)
 80033a0:	10800104 	addi	r2,r2,4
 80033a4:	10c00017 	ldw	r3,0(r2)
 80033a8:	e0bff617 	ldw	r2,-40(fp)
 80033ac:	1085883a 	add	r2,r2,r2
 80033b0:	1085883a 	add	r2,r2,r2
 80033b4:	1885883a 	add	r2,r3,r2
 80033b8:	15c00017 	ldw	r23,0(r2)
    outptr2 = output_buf[2][output_row];
 80033bc:	e0bff517 	ldw	r2,-44(fp)
 80033c0:	10800204 	addi	r2,r2,8
 80033c4:	10c00017 	ldw	r3,0(r2)
 80033c8:	e0bff617 	ldw	r2,-40(fp)
 80033cc:	1085883a 	add	r2,r2,r2
 80033d0:	1085883a 	add	r2,r2,r2
 80033d4:	1885883a 	add	r2,r3,r2
 80033d8:	10800017 	ldw	r2,0(r2)
 80033dc:	e0bff715 	stw	r2,-36(fp)
    output_row++;
 80033e0:	e0bff617 	ldw	r2,-40(fp)
 80033e4:	10800044 	addi	r2,r2,1
 80033e8:	e0bff615 	stw	r2,-40(fp)
    for (col = 0; col < num_cols; col++) {
 80033ec:	0023883a 	mov	r17,zero
 80033f0:	00004f06 	br	8003530 <rgb_ycc_convert+0x220>
      r = GETJSAMPLE(inptr[RGB_RED]);
 80033f4:	90800003 	ldbu	r2,0(r18)
 80033f8:	15403fcc 	andi	r21,r2,255
      g = GETJSAMPLE(inptr[RGB_GREEN]);
 80033fc:	90800044 	addi	r2,r18,1
 8003400:	10800003 	ldbu	r2,0(r2)
 8003404:	15003fcc 	andi	r20,r2,255
      b = GETJSAMPLE(inptr[RGB_BLUE]);
 8003408:	90800084 	addi	r2,r18,2
 800340c:	10800003 	ldbu	r2,0(r2)
 8003410:	14c03fcc 	andi	r19,r2,255
      inptr += RGB_PIXELSIZE;
 8003414:	948000c4 	addi	r18,r18,3
       * must be too; we do not need an explicit range-limiting operation.
       * Hence the value being shifted is never negative, and we don't
       * need the general RIGHT_SHIFT macro.
       */
      /* Y */
      outptr0[col] = (JSAMPLE)
 8003418:	b447883a 	add	r3,r22,r17
		((ctab[r+R_Y_OFF] + ctab[g+G_Y_OFF] + ctab[b+B_Y_OFF])
 800341c:	a805883a 	mov	r2,r21
 8003420:	1085883a 	add	r2,r2,r2
 8003424:	1085883a 	add	r2,r2,r2
 8003428:	8085883a 	add	r2,r16,r2
 800342c:	11000017 	ldw	r4,0(r2)
 8003430:	a005883a 	mov	r2,r20
 8003434:	10804004 	addi	r2,r2,256
 8003438:	1085883a 	add	r2,r2,r2
 800343c:	1085883a 	add	r2,r2,r2
 8003440:	8085883a 	add	r2,r16,r2
 8003444:	10800017 	ldw	r2,0(r2)
 8003448:	2089883a 	add	r4,r4,r2
 800344c:	9805883a 	mov	r2,r19
 8003450:	10808004 	addi	r2,r2,512
 8003454:	1085883a 	add	r2,r2,r2
 8003458:	1085883a 	add	r2,r2,r2
 800345c:	8085883a 	add	r2,r16,r2
 8003460:	10800017 	ldw	r2,0(r2)
 8003464:	2085883a 	add	r2,r4,r2
		 >> SCALEBITS);
 8003468:	1005d43a 	srai	r2,r2,16
       * must be too; we do not need an explicit range-limiting operation.
       * Hence the value being shifted is never negative, and we don't
       * need the general RIGHT_SHIFT macro.
       */
      /* Y */
      outptr0[col] = (JSAMPLE)
 800346c:	18800005 	stb	r2,0(r3)
		((ctab[r+R_Y_OFF] + ctab[g+G_Y_OFF] + ctab[b+B_Y_OFF])
		 >> SCALEBITS);
      /* Cb */
      outptr1[col] = (JSAMPLE)
 8003470:	bc47883a 	add	r3,r23,r17
		((ctab[r+R_CB_OFF] + ctab[g+G_CB_OFF] + ctab[b+B_CB_OFF])
 8003474:	a805883a 	mov	r2,r21
 8003478:	1080c004 	addi	r2,r2,768
 800347c:	1085883a 	add	r2,r2,r2
 8003480:	1085883a 	add	r2,r2,r2
 8003484:	8085883a 	add	r2,r16,r2
 8003488:	11000017 	ldw	r4,0(r2)
 800348c:	a005883a 	mov	r2,r20
 8003490:	10810004 	addi	r2,r2,1024
 8003494:	1085883a 	add	r2,r2,r2
 8003498:	1085883a 	add	r2,r2,r2
 800349c:	8085883a 	add	r2,r16,r2
 80034a0:	10800017 	ldw	r2,0(r2)
 80034a4:	2089883a 	add	r4,r4,r2
 80034a8:	9805883a 	mov	r2,r19
 80034ac:	10814004 	addi	r2,r2,1280
 80034b0:	1085883a 	add	r2,r2,r2
 80034b4:	1085883a 	add	r2,r2,r2
 80034b8:	8085883a 	add	r2,r16,r2
 80034bc:	10800017 	ldw	r2,0(r2)
 80034c0:	2085883a 	add	r2,r4,r2
		 >> SCALEBITS);
 80034c4:	1005d43a 	srai	r2,r2,16
      /* Y */
      outptr0[col] = (JSAMPLE)
		((ctab[r+R_Y_OFF] + ctab[g+G_Y_OFF] + ctab[b+B_Y_OFF])
		 >> SCALEBITS);
      /* Cb */
      outptr1[col] = (JSAMPLE)
 80034c8:	18800005 	stb	r2,0(r3)
		((ctab[r+R_CB_OFF] + ctab[g+G_CB_OFF] + ctab[b+B_CB_OFF])
		 >> SCALEBITS);
      /* Cr */
      outptr2[col] = (JSAMPLE)
 80034cc:	e0bff717 	ldw	r2,-36(fp)
 80034d0:	1447883a 	add	r3,r2,r17
		((ctab[r+R_CR_OFF] + ctab[g+G_CR_OFF] + ctab[b+B_CR_OFF])
 80034d4:	a805883a 	mov	r2,r21
 80034d8:	10814004 	addi	r2,r2,1280
 80034dc:	1085883a 	add	r2,r2,r2
 80034e0:	1085883a 	add	r2,r2,r2
 80034e4:	8085883a 	add	r2,r16,r2
 80034e8:	11000017 	ldw	r4,0(r2)
 80034ec:	a005883a 	mov	r2,r20
 80034f0:	10818004 	addi	r2,r2,1536
 80034f4:	1085883a 	add	r2,r2,r2
 80034f8:	1085883a 	add	r2,r2,r2
 80034fc:	8085883a 	add	r2,r16,r2
 8003500:	10800017 	ldw	r2,0(r2)
 8003504:	2089883a 	add	r4,r4,r2
 8003508:	9805883a 	mov	r2,r19
 800350c:	1081c004 	addi	r2,r2,1792
 8003510:	1085883a 	add	r2,r2,r2
 8003514:	1085883a 	add	r2,r2,r2
 8003518:	8085883a 	add	r2,r16,r2
 800351c:	10800017 	ldw	r2,0(r2)
 8003520:	2085883a 	add	r2,r4,r2
		 >> SCALEBITS);
 8003524:	1005d43a 	srai	r2,r2,16
      /* Cb */
      outptr1[col] = (JSAMPLE)
		((ctab[r+R_CB_OFF] + ctab[g+G_CB_OFF] + ctab[b+B_CB_OFF])
		 >> SCALEBITS);
      /* Cr */
      outptr2[col] = (JSAMPLE)
 8003528:	18800005 	stb	r2,0(r3)
    inptr = *input_buf++;
    outptr0 = output_buf[0][output_row];
    outptr1 = output_buf[1][output_row];
    outptr2 = output_buf[2][output_row];
    output_row++;
    for (col = 0; col < num_cols; col++) {
 800352c:	8c400044 	addi	r17,r17,1
 8003530:	e0bff217 	ldw	r2,-56(fp)
 8003534:	88bfaf36 	bltu	r17,r2,80033f4 <rgb_ycc_convert+0xe4>
  register JSAMPROW inptr;
  register JSAMPROW outptr0, outptr1, outptr2;
  register JDIMENSION col;
  JDIMENSION num_cols = cinfo->image_width;

  while (--num_rows >= 0) {
 8003538:	e0800117 	ldw	r2,4(fp)
 800353c:	10bfffc4 	addi	r2,r2,-1
 8003540:	e0800115 	stw	r2,4(fp)
 8003544:	e0800117 	ldw	r2,4(fp)
 8003548:	103f890e 	bge	r2,zero,8003370 <rgb_ycc_convert+0x60>
      outptr2[col] = (JSAMPLE)
		((ctab[r+R_CR_OFF] + ctab[g+G_CR_OFF] + ctab[b+B_CR_OFF])
		 >> SCALEBITS);
    }
  }
}
 800354c:	0001883a 	nop
 8003550:	e6fff804 	addi	sp,fp,-32
 8003554:	df000817 	ldw	fp,32(sp)
 8003558:	ddc00717 	ldw	r23,28(sp)
 800355c:	dd800617 	ldw	r22,24(sp)
 8003560:	dd400517 	ldw	r21,20(sp)
 8003564:	dd000417 	ldw	r20,16(sp)
 8003568:	dcc00317 	ldw	r19,12(sp)
 800356c:	dc800217 	ldw	r18,8(sp)
 8003570:	dc400117 	ldw	r17,4(sp)
 8003574:	dc000017 	ldw	r16,0(sp)
 8003578:	dec00904 	addi	sp,sp,36
 800357c:	f800283a 	ret

08003580 <rgb_gray_convert>:

METHODDEF(void)
rgb_gray_convert (j_compress_ptr cinfo,
		  JSAMPARRAY input_buf, JSAMPIMAGE output_buf,
		  JDIMENSION output_row, int num_rows)
{
 8003580:	defff204 	addi	sp,sp,-56
 8003584:	df000d15 	stw	fp,52(sp)
 8003588:	dd800c15 	stw	r22,48(sp)
 800358c:	dd400b15 	stw	r21,44(sp)
 8003590:	dd000a15 	stw	r20,40(sp)
 8003594:	dcc00915 	stw	r19,36(sp)
 8003598:	dc800815 	stw	r18,32(sp)
 800359c:	dc400715 	stw	r17,28(sp)
 80035a0:	dc000615 	stw	r16,24(sp)
 80035a4:	df000d04 	addi	fp,sp,52
 80035a8:	e13ff515 	stw	r4,-44(fp)
 80035ac:	e17ff615 	stw	r5,-40(fp)
 80035b0:	e1bff715 	stw	r6,-36(fp)
 80035b4:	e1fff815 	stw	r7,-32(fp)
  my_cconvert_ptr cconvert = (my_cconvert_ptr) cinfo->cconvert;
 80035b8:	e0bff517 	ldw	r2,-44(fp)
 80035bc:	10805617 	ldw	r2,344(r2)
 80035c0:	e0bff315 	stw	r2,-52(fp)
  register int r, g, b;
  register INT32 * ctab = cconvert->rgb_ycc_tab;
 80035c4:	e0bff317 	ldw	r2,-52(fp)
 80035c8:	14800217 	ldw	r18,8(r2)
  register JSAMPROW inptr;
  register JSAMPROW outptr;
  register JDIMENSION col;
  JDIMENSION num_cols = cinfo->image_width;
 80035cc:	e0bff517 	ldw	r2,-44(fp)
 80035d0:	10800617 	ldw	r2,24(r2)
 80035d4:	e0bff415 	stw	r2,-48(fp)

  while (--num_rows >= 0) {
 80035d8:	00003206 	br	80036a4 <rgb_gray_convert+0x124>
    inptr = *input_buf++;
 80035dc:	e0bff617 	ldw	r2,-40(fp)
 80035e0:	10c00104 	addi	r3,r2,4
 80035e4:	e0fff615 	stw	r3,-40(fp)
 80035e8:	14000017 	ldw	r16,0(r2)
    outptr = output_buf[0][output_row];
 80035ec:	e0bff717 	ldw	r2,-36(fp)
 80035f0:	10c00017 	ldw	r3,0(r2)
 80035f4:	e0bff817 	ldw	r2,-32(fp)
 80035f8:	1085883a 	add	r2,r2,r2
 80035fc:	1085883a 	add	r2,r2,r2
 8003600:	1885883a 	add	r2,r3,r2
 8003604:	14c00017 	ldw	r19,0(r2)
    output_row++;
 8003608:	e0bff817 	ldw	r2,-32(fp)
 800360c:	10800044 	addi	r2,r2,1
 8003610:	e0bff815 	stw	r2,-32(fp)
    for (col = 0; col < num_cols; col++) {
 8003614:	0023883a 	mov	r17,zero
 8003618:	00002006 	br	800369c <rgb_gray_convert+0x11c>
      r = GETJSAMPLE(inptr[RGB_RED]);
 800361c:	80800003 	ldbu	r2,0(r16)
 8003620:	15803fcc 	andi	r22,r2,255
